TN:
SF:/home/luizcouto/School/EasyMath/lib/Triangle.hpp
FN:14,_ZN8TriangleIdEC2Eddd
FNDA:10,_ZN8TriangleIdEC2Eddd
FN:24,_ZN8TriangleIdE9perimeterEv
FNDA:2,_ZN8TriangleIdE9perimeterEv
FN:28,_ZN8TriangleIdE20heightRelativeToSideEd
FNDA:5,_ZN8TriangleIdE20heightRelativeToSideEd
FN:40,_ZN8TriangleIdE4areaEv
FNDA:10,_ZN8TriangleIdE4areaEv
DA:14,10
DA:15,10
DA:16,1
DA:19,9
DA:20,9
DA:21,9
DA:22,9
DA:24,2
DA:25,2
DA:28,5
DA:29,5
DA:30,5
DA:31,1
DA:32,4
DA:33,1
DA:34,3
DA:35,1
DA:37,2
DA:40,10
DA:41,10
DA:42,10
end_of_record
SF:/home/luizcouto/School/EasyMath/lib/Parallelogram.hpp
FN:14,_ZN13ParallelogramIdEC2Eddd
FNDA:4,_ZN13ParallelogramIdEC2Eddd
FN:24,_ZN13ParallelogramIdE9perimeterEv
FNDA:1,_ZN13ParallelogramIdE9perimeterEv
FN:28,_ZN13ParallelogramIdE4areaEv
FNDA:2,_ZN13ParallelogramIdE4areaEv
FN:32,_ZN13ParallelogramIdE11otherHeightEv
FNDA:1,_ZN13ParallelogramIdE11otherHeightEv
DA:14,4
DA:15,4
DA:16,1
DA:19,3
DA:20,3
DA:21,3
DA:22,3
DA:24,1
DA:25,1
DA:28,2
DA:29,2
DA:32,1
DA:33,1
DA:34,1
end_of_record
SF:/usr/include/c++/11/bits/std_abs.h
FN:71,_ZSt3absd
FNDA:7,_ZSt3absd
DA:71,7
DA:72,7
end_of_record
SF:/home/luizcouto/School/EasyMath/tests/Trapeze.cpp
FN:4,_ZN45TrapezeTest_TrapezeNonNegativeDimensions_TestC2Ev
FNDA:1,_ZN45TrapezeTest_TrapezeNonNegativeDimensions_TestC2Ev
FN:4,_ZN45TrapezeTest_TrapezeNonNegativeDimensions_TestD0Ev
FNDA:1,_ZN45TrapezeTest_TrapezeNonNegativeDimensions_TestD0Ev
FN:4,_ZN45TrapezeTest_TrapezeNonNegativeDimensions_TestD2Ev
FNDA:1,_ZN45TrapezeTest_TrapezeNonNegativeDimensions_TestD2Ev
FN:4,_ZN45TrapezeTest_TrapezeNonNegativeDimensions_Test8TestBodyEv
FNDA:1,_ZN45TrapezeTest_TrapezeNonNegativeDimensions_Test8TestBodyEv
FN:16,_ZN28TrapezeTest_TrapezeArea_TestC2Ev
FNDA:1,_ZN28TrapezeTest_TrapezeArea_TestC2Ev
FN:16,_ZN28TrapezeTest_TrapezeArea_TestD0Ev
FNDA:1,_ZN28TrapezeTest_TrapezeArea_TestD0Ev
FN:16,_ZN28TrapezeTest_TrapezeArea_TestD2Ev
FNDA:1,_ZN28TrapezeTest_TrapezeArea_TestD2Ev
FN:16,_ZN28TrapezeTest_TrapezeArea_Test8TestBodyEv
FNDA:1,_ZN28TrapezeTest_TrapezeArea_Test8TestBodyEv
FN:21,_ZN33TrapezeTest_TrapezePerimeter_TestC2Ev
FNDA:1,_ZN33TrapezeTest_TrapezePerimeter_TestC2Ev
FN:21,_ZN33TrapezeTest_TrapezePerimeter_TestD0Ev
FNDA:1,_ZN33TrapezeTest_TrapezePerimeter_TestD0Ev
FN:21,_ZN33TrapezeTest_TrapezePerimeter_TestD2Ev
FNDA:1,_ZN33TrapezeTest_TrapezePerimeter_TestD2Ev
FN:21,_ZN33TrapezeTest_TrapezePerimeter_Test8TestBodyEv
FNDA:1,_ZN33TrapezeTest_TrapezePerimeter_Test8TestBodyEv
DA:4,1
DA:4,1
DA:4,1
DA:4,1
DA:5,3
DA:13,1
DA:14,1
DA:16,1
DA:16,1
DA:16,1
DA:16,1
DA:17,1
DA:18,1
DA:21,1
DA:21,1
DA:21,1
DA:21,1
DA:22,1
DA:23,1
end_of_record
SF:/home/luizcouto/School/EasyMath/lib/TriangularPrism.hpp
FN:14,_ZN15TriangularPrismIdEC2Eddd
FNDA:4,_ZN15TriangularPrismIdEC2Eddd
FN:24,_ZN15TriangularPrismIdE19rectangularBaseAreaEv
FNDA:1,_ZN15TriangularPrismIdE19rectangularBaseAreaEv
FN:28,_ZN15TriangularPrismIdE18triangularBaseAreaEv
FNDA:1,_ZN15TriangularPrismIdE18triangularBaseAreaEv
FN:32,_ZN15TriangularPrismIdE6volumeEv
FNDA:1,_ZN15TriangularPrismIdE6volumeEv
DA:14,4
DA:15,4
DA:16,1
DA:19,3
DA:20,3
DA:21,3
DA:22,3
DA:24,1
DA:25,1
DA:28,1
DA:29,1
DA:32,1
DA:33,1
end_of_record
SF:/home/luizcouto/School/EasyMath/lib/Sphere.hpp
FN:14,_ZN6SphereIdEC2Ed
FNDA:4,_ZN6SphereIdEC2Ed
FN:21,_ZN6SphereIdE4areaEv
FNDA:1,_ZN6SphereIdE4areaEv
FN:25,_ZN6SphereIdE6volumeEv
FNDA:1,_ZN6SphereIdE6volumeEv
FN:29,_ZN6SphereIdE8diameterEv
FNDA:1,_ZN6SphereIdE8diameterEv
DA:14,4
DA:15,4
DA:16,1
DA:18,3
DA:19,3
DA:21,1
DA:22,1
DA:25,1
DA:26,1
DA:29,1
DA:30,1
end_of_record
SF:/usr/include/c++/11/ext/new_allocator.h
FN:79,_ZN9__gnu_cxx13new_allocatorIcEC2Ev
FNDA:0,_ZN9__gnu_cxx13new_allocatorIcEC2Ev
FN:82,_ZN9__gnu_cxx13new_allocatorIcEC2ERKS1_
FNDA:0,_ZN9__gnu_cxx13new_allocatorIcEC2ERKS1_
FN:89,_ZN9__gnu_cxx13new_allocatorIcED2Ev
FNDA:0,_ZN9__gnu_cxx13new_allocatorIcED2Ev
DA:79,0
DA:82,0
DA:89,0
end_of_record
SF:/home/luizcouto/School/EasyMath/lib/Cylinder.hpp
FN:18,_ZN8CylinderIdEC2Edd
FNDA:3,_ZN8CylinderIdEC2Edd
FN:27,_ZN8CylinderIdE4areaEv
FNDA:1,_ZN8CylinderIdE4areaEv
FN:33,_ZN8CylinderIdE6volumeEv
FNDA:1,_ZN8CylinderIdE6volumeEv
DA:18,3
DA:19,3
DA:20,1
DA:22,2
DA:23,2
DA:24,2
DA:25,2
DA:27,1
DA:28,1
DA:29,1
DA:30,1
DA:33,1
DA:34,1
end_of_record
SF:/home/luizcouto/School/EasyMath/tests/Cube.cpp
FN:4,_ZN33CubeTest_CubeNonNegativeEdge_TestC2Ev
FNDA:1,_ZN33CubeTest_CubeNonNegativeEdge_TestC2Ev
FN:4,_ZN33CubeTest_CubeNonNegativeEdge_TestD0Ev
FNDA:1,_ZN33CubeTest_CubeNonNegativeEdge_TestD0Ev
FN:4,_ZN33CubeTest_CubeNonNegativeEdge_TestD2Ev
FNDA:1,_ZN33CubeTest_CubeNonNegativeEdge_TestD2Ev
FN:4,_ZN33CubeTest_CubeNonNegativeEdge_Test8TestBodyEv
FNDA:1,_ZN33CubeTest_CubeNonNegativeEdge_Test8TestBodyEv
FN:16,_ZN27CubeTest_CubePerimeter_TestC2Ev
FNDA:1,_ZN27CubeTest_CubePerimeter_TestC2Ev
FN:16,_ZN27CubeTest_CubePerimeter_TestD0Ev
FNDA:1,_ZN27CubeTest_CubePerimeter_TestD0Ev
FN:16,_ZN27CubeTest_CubePerimeter_TestD2Ev
FNDA:1,_ZN27CubeTest_CubePerimeter_TestD2Ev
FN:16,_ZN27CubeTest_CubePerimeter_Test8TestBodyEv
FNDA:1,_ZN27CubeTest_CubePerimeter_Test8TestBodyEv
FN:21,_ZN22CubeTest_CubeArea_TestC2Ev
FNDA:1,_ZN22CubeTest_CubeArea_TestC2Ev
FN:21,_ZN22CubeTest_CubeArea_TestD0Ev
FNDA:1,_ZN22CubeTest_CubeArea_TestD0Ev
FN:21,_ZN22CubeTest_CubeArea_TestD2Ev
FNDA:1,_ZN22CubeTest_CubeArea_TestD2Ev
FN:21,_ZN22CubeTest_CubeArea_Test8TestBodyEv
FNDA:1,_ZN22CubeTest_CubeArea_Test8TestBodyEv
FN:26,_ZN24CubeTest_CubeVolume_TestC2Ev
FNDA:1,_ZN24CubeTest_CubeVolume_TestC2Ev
FN:26,_ZN24CubeTest_CubeVolume_TestD0Ev
FNDA:1,_ZN24CubeTest_CubeVolume_TestD0Ev
FN:26,_ZN24CubeTest_CubeVolume_TestD2Ev
FNDA:1,_ZN24CubeTest_CubeVolume_TestD2Ev
FN:26,_ZN24CubeTest_CubeVolume_Test8TestBodyEv
FNDA:1,_ZN24CubeTest_CubeVolume_Test8TestBodyEv
DA:4,1
DA:4,1
DA:4,1
DA:4,1
DA:5,3
DA:13,1
DA:14,1
DA:16,1
DA:16,1
DA:16,1
DA:16,1
DA:17,1
DA:18,1
DA:21,1
DA:21,1
DA:21,1
DA:21,1
DA:22,1
DA:23,1
DA:26,1
DA:26,1
DA:26,1
DA:26,1
DA:27,1
DA:28,1
end_of_record
SF:/home/luizcouto/School/EasyMath/lib/Pentagon.hpp
FN:14,_ZN8PentagonIdEC2Ed
FNDA:5,_ZN8PentagonIdEC2Ed
FN:21,_ZN8PentagonIdE4areaEv
FNDA:3,_ZN8PentagonIdE4areaEv
FN:25,_ZN8PentagonIdE9perimeterEv
FNDA:1,_ZN8PentagonIdE9perimeterEv
DA:14,5
DA:15,5
DA:16,1
DA:18,4
DA:19,4
DA:21,3
DA:22,3
DA:25,1
DA:26,1
end_of_record
SF:/home/luizcouto/School/EasyMath/lib/Hexagon.hpp
FN:12,_ZN7HexagonIdEC2Ed
FNDA:4,_ZN7HexagonIdEC2Ed
FN:21,_ZN7HexagonIdE4areaEv
FNDA:1,_ZN7HexagonIdE4areaEv
FN:26,_ZN7HexagonIdE9perimeterEv
FNDA:1,_ZN7HexagonIdE9perimeterEv
FN:31,_ZN7HexagonIdE8diagonalEv
FNDA:1,_ZN7HexagonIdE8diagonalEv
DA:12,4
DA:14,4
DA:15,1
DA:18,3
DA:19,3
DA:21,1
DA:23,1
DA:26,1
DA:28,1
DA:31,1
DA:33,1
end_of_record
SF:/usr/include/c++/11/typeinfo
FN:99,_ZNKSt9type_info4nameEv
FNDA:0,_ZNKSt9type_info4nameEv
DA:99,0
DA:100,0
end_of_record
SF:/home/luizcouto/School/EasyMath/tests/Parallelogram.cpp
FN:4,_ZN57ParallelogramTest_ParallelogramNonNegativeDimensions_TestC2Ev
FNDA:1,_ZN57ParallelogramTest_ParallelogramNonNegativeDimensions_TestC2Ev
FN:4,_ZN57ParallelogramTest_ParallelogramNonNegativeDimensions_TestD0Ev
FNDA:1,_ZN57ParallelogramTest_ParallelogramNonNegativeDimensions_TestD0Ev
FN:4,_ZN57ParallelogramTest_ParallelogramNonNegativeDimensions_TestD2Ev
FNDA:1,_ZN57ParallelogramTest_ParallelogramNonNegativeDimensions_TestD2Ev
FN:4,_ZN57ParallelogramTest_ParallelogramNonNegativeDimensions_Test8TestBodyEv
FNDA:1,_ZN57ParallelogramTest_ParallelogramNonNegativeDimensions_Test8TestBodyEv
FN:16,_ZN45ParallelogramTest_ParallelogramPerimeter_TestC2Ev
FNDA:1,_ZN45ParallelogramTest_ParallelogramPerimeter_TestC2Ev
FN:16,_ZN45ParallelogramTest_ParallelogramPerimeter_TestD0Ev
FNDA:1,_ZN45ParallelogramTest_ParallelogramPerimeter_TestD0Ev
FN:16,_ZN45ParallelogramTest_ParallelogramPerimeter_TestD2Ev
FNDA:1,_ZN45ParallelogramTest_ParallelogramPerimeter_TestD2Ev
FN:16,_ZN45ParallelogramTest_ParallelogramPerimeter_Test8TestBodyEv
FNDA:1,_ZN45ParallelogramTest_ParallelogramPerimeter_Test8TestBodyEv
FN:21,_ZN40ParallelogramTest_ParallelogramArea_TestC2Ev
FNDA:1,_ZN40ParallelogramTest_ParallelogramArea_TestC2Ev
FN:21,_ZN40ParallelogramTest_ParallelogramArea_TestD0Ev
FNDA:1,_ZN40ParallelogramTest_ParallelogramArea_TestD0Ev
FN:21,_ZN40ParallelogramTest_ParallelogramArea_TestD2Ev
FNDA:1,_ZN40ParallelogramTest_ParallelogramArea_TestD2Ev
FN:21,_ZN40ParallelogramTest_ParallelogramArea_Test8TestBodyEv
FNDA:1,_ZN40ParallelogramTest_ParallelogramArea_Test8TestBodyEv
FN:26,_ZN47ParallelogramTest_ParallelogramOtherHeight_TestC2Ev
FNDA:1,_ZN47ParallelogramTest_ParallelogramOtherHeight_TestC2Ev
FN:26,_ZN47ParallelogramTest_ParallelogramOtherHeight_TestD0Ev
FNDA:1,_ZN47ParallelogramTest_ParallelogramOtherHeight_TestD0Ev
FN:26,_ZN47ParallelogramTest_ParallelogramOtherHeight_TestD2Ev
FNDA:1,_ZN47ParallelogramTest_ParallelogramOtherHeight_TestD2Ev
FN:26,_ZN47ParallelogramTest_ParallelogramOtherHeight_Test8TestBodyEv
FNDA:1,_ZN47ParallelogramTest_ParallelogramOtherHeight_Test8TestBodyEv
DA:4,1
DA:4,1
DA:4,1
DA:4,1
DA:5,3
DA:13,1
DA:14,1
DA:16,1
DA:16,1
DA:16,1
DA:16,1
DA:17,1
DA:18,1
DA:21,1
DA:21,1
DA:21,1
DA:21,1
DA:22,1
DA:23,1
DA:26,1
DA:26,1
DA:26,1
DA:26,1
DA:27,1
DA:28,1
end_of_record
SF:/home/luizcouto/School/EasyMath/lib/Circle.hpp
FN:14,_ZN6CircleIdEC2Ed
FNDA:15,_ZN6CircleIdEC2Ed
FN:21,_ZN6CircleIdE4areaEv
FNDA:24,_ZN6CircleIdE4areaEv
FN:25,_ZN6CircleIdE9perimeterEv
FNDA:2,_ZN6CircleIdE9perimeterEv
FN:29,_ZN6CircleIdE8diameterEv
FNDA:1,_ZN6CircleIdE8diameterEv
DA:14,15
DA:15,15
DA:16,1
DA:18,14
DA:19,14
DA:21,24
DA:22,24
DA:25,2
DA:26,2
DA:29,1
DA:30,1
end_of_record
SF:/usr/include/c++/11/bits/basic_string.h
FN:251,_ZNSt7__cxx1112basic_stringIcSt11char_traitsIcESaIcEE16_M_construct_auxIPcEEvT_S7_St12__false_type
FNDA:0,_ZNSt7__cxx1112basic_stringIcSt11char_traitsIcESaIcEE16_M_construct_auxIPcEEvT_S7_St12__false_type
FN:271,_ZNSt7__cxx1112basic_stringIcSt11char_traitsIcESaIcEE12_M_constructIPcEEvT_S7_
FNDA:0,_ZNSt7__cxx1112basic_stringIcSt11char_traitsIcESaIcEE12_M_constructIPcEEvT_S7_
FN:533,_ZNSt7__cxx1112basic_stringIcSt11char_traitsIcESaIcEEC2IS3_EEPKcRKS3_
FNDA:65,_ZNSt7__cxx1112basic_stringIcSt11char_traitsIcESaIcEEC2IS3_EEPKcRKS3_
DA:251,0
DA:255,0
DA:256,0
DA:271,0
DA:274,0
DA:275,0
DA:533,65
DA:534,65
DA:536,65
DA:539,65
DA:540,65
end_of_record
SF:/usr/include/c++/11/bits/basic_string.tcc
FN:206,_ZNSt7__cxx1112basic_stringIcSt11char_traitsIcESaIcEE12_M_constructIPcEEvT_S7_St20forward_iterator_tag
FNDA:0,_ZNSt7__cxx1112basic_stringIcSt11char_traitsIcESaIcEE12_M_constructIPcEEvT_S7_St20forward_iterator_tag
FN:206,_ZNSt7__cxx1112basic_stringIcSt11char_traitsIcESaIcEE12_M_constructIPKcEEvT_S8_St20forward_iterator_tag
FNDA:65,_ZNSt7__cxx1112basic_stringIcSt11char_traitsIcESaIcEE12_M_constructIPKcEEvT_S8_St20forward_iterator_tag
DA:206,0
DA:211,0
DA:212,0
DA:215,0
DA:217,0
DA:219,0
DA:220,0
DA:225,0
DA:226,0
DA:228,0
DA:229,0
DA:232,0
DA:233,0
DA:206,65
DA:211,65
DA:212,0
DA:215,65
DA:217,65
DA:219,61
DA:220,61
DA:225,65
DA:226,0
DA:228,0
DA:229,0
DA:232,65
DA:233,65
end_of_record
SF:/usr/include/c++/11/bits/stl_iterator_base_types.h
FN:238,_ZSt19__iterator_categoryIPcENSt15iterator_traitsIT_E17iterator_categoryERKS2_
FNDA:0,_ZSt19__iterator_categoryIPcENSt15iterator_traitsIT_E17iterator_categoryERKS2_
FN:238,_ZSt19__iterator_categoryIPKcENSt15iterator_traitsIT_E17iterator_categoryERKS3_
FNDA:65,_ZSt19__iterator_categoryIPKcENSt15iterator_traitsIT_E17iterator_categoryERKS3_
DA:238,0
DA:239,0
DA:238,65
DA:239,65
end_of_record
SF:/usr/include/c++/11/bits/unique_ptr.h
FN:79,_ZNKSt14default_deleteINSt7__cxx1112basic_stringIcSt11char_traitsIcESaIcEEEEclEPS5_
FNDA:0,_ZNKSt14default_deleteINSt7__cxx1112basic_stringIcSt11char_traitsIcESaIcEEEEclEPS5_
FN:79,_ZNKSt14default_deleteINSt7__cxx1118basic_stringstreamIcSt11char_traitsIcESaIcEEEEclEPS5_
FNDA:0,_ZNKSt14default_deleteINSt7__cxx1118basic_stringstreamIcSt11char_traitsIcESaIcEEEEclEPS5_
FN:172,_ZNSt15__uniq_ptr_implINSt7__cxx1112basic_stringIcSt11char_traitsIcESaIcEEESt14default_deleteIS5_EE6_M_ptrEv
FNDA:74,_ZNSt15__uniq_ptr_implINSt7__cxx1112basic_stringIcSt11char_traitsIcESaIcEEESt14default_deleteIS5_EE6_M_ptrEv
FN:172,_ZNSt15__uniq_ptr_implINSt7__cxx1118basic_stringstreamIcSt11char_traitsIcESaIcEEESt14default_deleteIS5_EE6_M_ptrEv
FNDA:0,_ZNSt15__uniq_ptr_implINSt7__cxx1118basic_stringstreamIcSt11char_traitsIcESaIcEEESt14default_deleteIS5_EE6_M_ptrEv
FN:173,_ZNKSt15__uniq_ptr_implINSt7__cxx1112basic_stringIcSt11char_traitsIcESaIcEEESt14default_deleteIS5_EE6_M_ptrEv
FNDA:0,_ZNKSt15__uniq_ptr_implINSt7__cxx1112basic_stringIcSt11char_traitsIcESaIcEEESt14default_deleteIS5_EE6_M_ptrEv
FN:174,_ZNSt15__uniq_ptr_implINSt7__cxx1112basic_stringIcSt11char_traitsIcESaIcEEESt14default_deleteIS5_EE10_M_deleterEv
FNDA:0,_ZNSt15__uniq_ptr_implINSt7__cxx1112basic_stringIcSt11char_traitsIcESaIcEEESt14default_deleteIS5_EE10_M_deleterEv
FN:174,_ZNSt15__uniq_ptr_implINSt7__cxx1118basic_stringstreamIcSt11char_traitsIcESaIcEEESt14default_deleteIS5_EE10_M_deleterEv
FNDA:0,_ZNSt15__uniq_ptr_implINSt7__cxx1118basic_stringstreamIcSt11char_traitsIcESaIcEEESt14default_deleteIS5_EE10_M_deleterEv
FN:355,_ZNSt10unique_ptrINSt7__cxx1112basic_stringIcSt11char_traitsIcESaIcEEESt14default_deleteIS5_EED2Ev
FNDA:74,_ZNSt10unique_ptrINSt7__cxx1112basic_stringIcSt11char_traitsIcESaIcEEESt14default_deleteIS5_EED2Ev
FN:355,_ZNSt10unique_ptrINSt7__cxx1118basic_stringstreamIcSt11char_traitsIcESaIcEEESt14default_deleteIS5_EED2Ev
FNDA:0,_ZNSt10unique_ptrINSt7__cxx1118basic_stringstreamIcSt11char_traitsIcESaIcEEESt14default_deleteIS5_EED2Ev
FN:413,_ZNKSt10unique_ptrINSt7__cxx1112basic_stringIcSt11char_traitsIcESaIcEEESt14default_deleteIS5_EEptEv
FNDA:0,_ZNKSt10unique_ptrINSt7__cxx1112basic_stringIcSt11char_traitsIcESaIcEEESt14default_deleteIS5_EEptEv
FN:421,_ZNKSt10unique_ptrINSt7__cxx1112basic_stringIcSt11char_traitsIcESaIcEEESt14default_deleteIS5_EE3getEv
FNDA:0,_ZNKSt10unique_ptrINSt7__cxx1112basic_stringIcSt11char_traitsIcESaIcEEESt14default_deleteIS5_EE3getEv
FN:426,_ZNSt10unique_ptrINSt7__cxx1112basic_stringIcSt11char_traitsIcESaIcEEESt14default_deleteIS5_EE11get_deleterEv
FNDA:0,_ZNSt10unique_ptrINSt7__cxx1112basic_stringIcSt11char_traitsIcESaIcEEESt14default_deleteIS5_EE11get_deleterEv
FN:426,_ZNSt10unique_ptrINSt7__cxx1118basic_stringstreamIcSt11char_traitsIcESaIcEEESt14default_deleteIS5_EE11get_deleterEv
FNDA:0,_ZNSt10unique_ptrINSt7__cxx1118basic_stringstreamIcSt11char_traitsIcESaIcEEESt14default_deleteIS5_EE11get_deleterEv
DA:79,0
DA:85,0
DA:86,0
DA:79,0
DA:85,0
DA:86,0
DA:172,74
DA:172,0
DA:173,0
DA:174,0
DA:174,0
DA:355,74
DA:359,74
DA:360,74
DA:361,0
DA:362,74
DA:363,74
DA:355,0
DA:359,0
DA:360,0
DA:361,0
DA:362,0
DA:363,0
DA:413,0
DA:416,0
DA:421,0
DA:422,0
DA:426,0
DA:427,0
DA:426,0
DA:427,0
end_of_record
SF:/home/luizcouto/School/EasyMath/tests/Square.cpp
FN:4,_ZN44EasyMathSquareTest_SquareNoNegativeSide_TestC2Ev
FNDA:1,_ZN44EasyMathSquareTest_SquareNoNegativeSide_TestC2Ev
FN:4,_ZN44EasyMathSquareTest_SquareNoNegativeSide_TestD0Ev
FNDA:1,_ZN44EasyMathSquareTest_SquareNoNegativeSide_TestD0Ev
FN:4,_ZN44EasyMathSquareTest_SquareNoNegativeSide_TestD2Ev
FNDA:1,_ZN44EasyMathSquareTest_SquareNoNegativeSide_TestD2Ev
FN:4,_ZN44EasyMathSquareTest_SquareNoNegativeSide_Test8TestBodyEv
FNDA:1,_ZN44EasyMathSquareTest_SquareNoNegativeSide_Test8TestBodyEv
FN:18,_ZN34EasyMathSquareTest_SquareArea_TestC2Ev
FNDA:1,_ZN34EasyMathSquareTest_SquareArea_TestC2Ev
FN:18,_ZN34EasyMathSquareTest_SquareArea_TestD0Ev
FNDA:1,_ZN34EasyMathSquareTest_SquareArea_TestD0Ev
FN:18,_ZN34EasyMathSquareTest_SquareArea_TestD2Ev
FNDA:1,_ZN34EasyMathSquareTest_SquareArea_TestD2Ev
FN:18,_ZN34EasyMathSquareTest_SquareArea_Test8TestBodyEv
FNDA:1,_ZN34EasyMathSquareTest_SquareArea_Test8TestBodyEv
FN:23,_ZN39EasyMathSquareTest_SquarePerimeter_TestC2Ev
FNDA:1,_ZN39EasyMathSquareTest_SquarePerimeter_TestC2Ev
FN:23,_ZN39EasyMathSquareTest_SquarePerimeter_TestD0Ev
FNDA:1,_ZN39EasyMathSquareTest_SquarePerimeter_TestD0Ev
FN:23,_ZN39EasyMathSquareTest_SquarePerimeter_TestD2Ev
FNDA:1,_ZN39EasyMathSquareTest_SquarePerimeter_TestD2Ev
FN:23,_ZN39EasyMathSquareTest_SquarePerimeter_Test8TestBodyEv
FNDA:1,_ZN39EasyMathSquareTest_SquarePerimeter_Test8TestBodyEv
FN:28,_ZN38EasyMathSquareTest_SquareDiagonal_TestC2Ev
FNDA:1,_ZN38EasyMathSquareTest_SquareDiagonal_TestC2Ev
FN:28,_ZN38EasyMathSquareTest_SquareDiagonal_TestD0Ev
FNDA:1,_ZN38EasyMathSquareTest_SquareDiagonal_TestD0Ev
FN:28,_ZN38EasyMathSquareTest_SquareDiagonal_TestD2Ev
FNDA:1,_ZN38EasyMathSquareTest_SquareDiagonal_TestD2Ev
FN:28,_ZN38EasyMathSquareTest_SquareDiagonal_Test8TestBodyEv
FNDA:1,_ZN38EasyMathSquareTest_SquareDiagonal_Test8TestBodyEv
DA:4,1
DA:4,1
DA:4,1
DA:4,1
DA:5,3
DA:15,1
DA:16,1
DA:18,1
DA:18,1
DA:18,1
DA:18,1
DA:19,1
DA:20,1
DA:23,1
DA:23,1
DA:23,1
DA:23,1
DA:24,1
DA:25,1
DA:28,1
DA:28,1
DA:28,1
DA:28,1
DA:29,1
DA:30,1
end_of_record
SF:/usr/include/gtest/internal/gtest-type-util.h
FN:55,_ZN7testing8internal31CanonicalizeForStdLibVersioningENSt7__cxx1112basic_stringIcSt11char_traitsIcESaIcEEE
FNDA:0,_ZN7testing8internal31CanonicalizeForStdLibVersioningENSt7__cxx1112basic_stringIcSt11char_traitsIcESaIcEEE
FN:69,_ZN7testing8internal11GetTypeNameB5cxx11ERKSt9type_info
FNDA:0,_ZN7testing8internal11GetTypeNameB5cxx11ERKSt9type_info
DA:55,0
DA:57,0
DA:58,0
DA:59,0
DA:61,0
DA:64,0
DA:69,0
DA:70,0
DA:72,0
DA:78,0
DA:79,0
DA:80,0
DA:81,0
DA:85,0
end_of_record
SF:/usr/include/c++/11/bits/alloc_traits.h
FN:558,_ZNSt16allocator_traitsISaIcEE37select_on_container_copy_constructionERKS0_
FNDA:0,_ZNSt16allocator_traitsISaIcEE37select_on_container_copy_constructionERKS0_
DA:558,0
DA:559,0
end_of_record
SF:/home/luizcouto/School/EasyMath/lib/Trapeze.hpp
FN:18,_ZN7TrapezeIdEC2Eddddd
FNDA:3,_ZN7TrapezeIdEC2Eddddd
FN:30,_ZN7TrapezeIdE4areaEv
FNDA:1,_ZN7TrapezeIdE4areaEv
FN:34,_ZN7TrapezeIdE9perimeterEv
FNDA:1,_ZN7TrapezeIdE9perimeterEv
DA:18,3
DA:19,3
DA:20,1
DA:23,2
DA:24,2
DA:25,2
DA:26,2
DA:27,2
DA:28,2
DA:30,1
DA:31,1
DA:34,1
DA:35,1
end_of_record
SF:/home/luizcouto/School/EasyMath/tests/Rectangle.cpp
FN:4,_ZN50EasyMathRectangleTest_RectangleNoNegativeSide_TestC2Ev
FNDA:1,_ZN50EasyMathRectangleTest_RectangleNoNegativeSide_TestC2Ev
FN:4,_ZN50EasyMathRectangleTest_RectangleNoNegativeSide_TestD0Ev
FNDA:1,_ZN50EasyMathRectangleTest_RectangleNoNegativeSide_TestD0Ev
FN:4,_ZN50EasyMathRectangleTest_RectangleNoNegativeSide_TestD2Ev
FNDA:1,_ZN50EasyMathRectangleTest_RectangleNoNegativeSide_TestD2Ev
FN:4,_ZN50EasyMathRectangleTest_RectangleNoNegativeSide_Test8TestBodyEv
FNDA:1,_ZN50EasyMathRectangleTest_RectangleNoNegativeSide_Test8TestBodyEv
FN:30,_ZN45EasyMathRectangleTest_RectanglePerimeter_TestC2Ev
FNDA:1,_ZN45EasyMathRectangleTest_RectanglePerimeter_TestC2Ev
FN:30,_ZN45EasyMathRectangleTest_RectanglePerimeter_TestD0Ev
FNDA:1,_ZN45EasyMathRectangleTest_RectanglePerimeter_TestD0Ev
FN:30,_ZN45EasyMathRectangleTest_RectanglePerimeter_TestD2Ev
FNDA:1,_ZN45EasyMathRectangleTest_RectanglePerimeter_TestD2Ev
FN:30,_ZN45EasyMathRectangleTest_RectanglePerimeter_Test8TestBodyEv
FNDA:1,_ZN45EasyMathRectangleTest_RectanglePerimeter_Test8TestBodyEv
FN:35,_ZN40EasyMathRectangleTest_RectangleArea_TestC2Ev
FNDA:1,_ZN40EasyMathRectangleTest_RectangleArea_TestC2Ev
FN:35,_ZN40EasyMathRectangleTest_RectangleArea_TestD0Ev
FNDA:1,_ZN40EasyMathRectangleTest_RectangleArea_TestD0Ev
FN:35,_ZN40EasyMathRectangleTest_RectangleArea_TestD2Ev
FNDA:1,_ZN40EasyMathRectangleTest_RectangleArea_TestD2Ev
FN:35,_ZN40EasyMathRectangleTest_RectangleArea_Test8TestBodyEv
FNDA:1,_ZN40EasyMathRectangleTest_RectangleArea_Test8TestBodyEv
FN:40,_ZN44EasyMathRectangleTest_RectangleDiagonal_TestC2Ev
FNDA:1,_ZN44EasyMathRectangleTest_RectangleDiagonal_TestC2Ev
FN:40,_ZN44EasyMathRectangleTest_RectangleDiagonal_TestD0Ev
FNDA:1,_ZN44EasyMathRectangleTest_RectangleDiagonal_TestD0Ev
FN:40,_ZN44EasyMathRectangleTest_RectangleDiagonal_TestD2Ev
FNDA:1,_ZN44EasyMathRectangleTest_RectangleDiagonal_TestD2Ev
FN:40,_ZN44EasyMathRectangleTest_RectangleDiagonal_Test8TestBodyEv
FNDA:1,_ZN44EasyMathRectangleTest_RectangleDiagonal_Test8TestBodyEv
DA:4,1
DA:4,1
DA:4,1
DA:4,1
DA:5,3
DA:15,1
DA:17,3
DA:27,1
DA:28,1
DA:30,1
DA:30,1
DA:30,1
DA:30,1
DA:31,1
DA:32,1
DA:35,1
DA:35,1
DA:35,1
DA:35,1
DA:36,1
DA:37,1
DA:40,1
DA:40,1
DA:40,1
DA:40,1
DA:41,1
DA:42,1
end_of_record
SF:/usr/include/gtest/internal/gtest-port.h
FN:974,_ZN7testing8internal8GTestLog9GetStreamEv
FNDA:0,_ZN7testing8internal8GTestLog9GetStreamEv
DA:974,0
end_of_record
SF:/home/luizcouto/School/EasyMath/tests/TriangularPrism.cpp
FN:4,_ZN61TriangularPrismTest_TriangularPrismNonNegativeDimensions_TestC2Ev
FNDA:1,_ZN61TriangularPrismTest_TriangularPrismNonNegativeDimensions_TestC2Ev
FN:4,_ZN61TriangularPrismTest_TriangularPrismNonNegativeDimensions_TestD0Ev
FNDA:1,_ZN61TriangularPrismTest_TriangularPrismNonNegativeDimensions_TestD0Ev
FN:4,_ZN61TriangularPrismTest_TriangularPrismNonNegativeDimensions_TestD2Ev
FNDA:1,_ZN61TriangularPrismTest_TriangularPrismNonNegativeDimensions_TestD2Ev
FN:4,_ZN61TriangularPrismTest_TriangularPrismNonNegativeDimensions_Test8TestBodyEv
FNDA:1,_ZN61TriangularPrismTest_TriangularPrismNonNegativeDimensions_Test8TestBodyEv
FN:16,_ZN59TriangularPrismTest_TriangularPrismRectangularBaseArea_TestC2Ev
FNDA:1,_ZN59TriangularPrismTest_TriangularPrismRectangularBaseArea_TestC2Ev
FN:16,_ZN59TriangularPrismTest_TriangularPrismRectangularBaseArea_TestD0Ev
FNDA:1,_ZN59TriangularPrismTest_TriangularPrismRectangularBaseArea_TestD0Ev
FN:16,_ZN59TriangularPrismTest_TriangularPrismRectangularBaseArea_TestD2Ev
FNDA:1,_ZN59TriangularPrismTest_TriangularPrismRectangularBaseArea_TestD2Ev
FN:16,_ZN59TriangularPrismTest_TriangularPrismRectangularBaseArea_Test8TestBodyEv
FNDA:1,_ZN59TriangularPrismTest_TriangularPrismRectangularBaseArea_Test8TestBodyEv
FN:21,_ZN58TriangularPrismTest_TriangularPrismTriangularBaseArea_TestC2Ev
FNDA:1,_ZN58TriangularPrismTest_TriangularPrismTriangularBaseArea_TestC2Ev
FN:21,_ZN58TriangularPrismTest_TriangularPrismTriangularBaseArea_TestD0Ev
FNDA:1,_ZN58TriangularPrismTest_TriangularPrismTriangularBaseArea_TestD0Ev
FN:21,_ZN58TriangularPrismTest_TriangularPrismTriangularBaseArea_TestD2Ev
FNDA:1,_ZN58TriangularPrismTest_TriangularPrismTriangularBaseArea_TestD2Ev
FN:21,_ZN58TriangularPrismTest_TriangularPrismTriangularBaseArea_Test8TestBodyEv
FNDA:1,_ZN58TriangularPrismTest_TriangularPrismTriangularBaseArea_Test8TestBodyEv
FN:26,_ZN46TriangularPrismTest_TriangularPrismVolume_TestC2Ev
FNDA:1,_ZN46TriangularPrismTest_TriangularPrismVolume_TestC2Ev
FN:26,_ZN46TriangularPrismTest_TriangularPrismVolume_TestD0Ev
FNDA:1,_ZN46TriangularPrismTest_TriangularPrismVolume_TestD0Ev
FN:26,_ZN46TriangularPrismTest_TriangularPrismVolume_TestD2Ev
FNDA:1,_ZN46TriangularPrismTest_TriangularPrismVolume_TestD2Ev
FN:26,_ZN46TriangularPrismTest_TriangularPrismVolume_Test8TestBodyEv
FNDA:1,_ZN46TriangularPrismTest_TriangularPrismVolume_Test8TestBodyEv
DA:4,1
DA:4,1
DA:4,1
DA:4,1
DA:5,3
DA:13,1
DA:14,1
DA:16,1
DA:16,1
DA:16,1
DA:16,1
DA:17,1
DA:18,1
DA:21,1
DA:21,1
DA:21,1
DA:21,1
DA:22,1
DA:23,1
DA:26,1
DA:26,1
DA:26,1
DA:26,1
DA:27,1
DA:28,1
end_of_record
SF:/home/luizcouto/School/EasyMath/tests/EasyMath.cpp
FN:22,main
FNDA:1,main
DA:22,1
DA:24,1
DA:26,1
end_of_record
SF:/home/luizcouto/School/EasyMath/tests/Integration.cpp
FN:35,_ZN36DobrandoPapeis_IntegrationTests_TestC2Ev
FNDA:1,_ZN36DobrandoPapeis_IntegrationTests_TestC2Ev
FN:35,_ZN36DobrandoPapeis_IntegrationTests_Test8TestBodyEv
FNDA:1,_ZN36DobrandoPapeis_IntegrationTests_Test8TestBodyEv
FN:35,_ZN36DobrandoPapeis_IntegrationTests_TestD0Ev
FNDA:1,_ZN36DobrandoPapeis_IntegrationTests_TestD0Ev
FN:35,_ZN36DobrandoPapeis_IntegrationTests_TestD2Ev
FNDA:1,_ZN36DobrandoPapeis_IntegrationTests_TestD2Ev
FN:74,_ZN38DivisaoDoTerreno_IntegrationTests_TestC2Ev
FNDA:1,_ZN38DivisaoDoTerreno_IntegrationTests_TestC2Ev
FN:74,_ZN38DivisaoDoTerreno_IntegrationTests_Test8TestBodyEv
FNDA:1,_ZN38DivisaoDoTerreno_IntegrationTests_Test8TestBodyEv
FN:74,_ZN38DivisaoDoTerreno_IntegrationTests_TestD2Ev
FNDA:1,_ZN38DivisaoDoTerreno_IntegrationTests_TestD2Ev
FN:74,_ZN38DivisaoDoTerreno_IntegrationTests_TestD0Ev
FNDA:1,_ZN38DivisaoDoTerreno_IntegrationTests_TestD0Ev
FN:116,_ZN45OsTriangulosEquilateros_IntegrationTests_TestD0Ev
FNDA:1,_ZN45OsTriangulosEquilateros_IntegrationTests_TestD0Ev
FN:116,_ZN45OsTriangulosEquilateros_IntegrationTests_TestD2Ev
FNDA:1,_ZN45OsTriangulosEquilateros_IntegrationTests_TestD2Ev
FN:116,_ZN45OsTriangulosEquilateros_IntegrationTests_Test8TestBodyEv
FNDA:1,_ZN45OsTriangulosEquilateros_IntegrationTests_Test8TestBodyEv
FN:116,_ZN45OsTriangulosEquilateros_IntegrationTests_TestC2Ev
FNDA:1,_ZN45OsTriangulosEquilateros_IntegrationTests_TestC2Ev
FN:156,_ZN35CortandoOCubo_IntegrationTests_TestD0Ev
FNDA:1,_ZN35CortandoOCubo_IntegrationTests_TestD0Ev
FN:156,_ZN35CortandoOCubo_IntegrationTests_TestD2Ev
FNDA:1,_ZN35CortandoOCubo_IntegrationTests_TestD2Ev
FN:156,_ZN35CortandoOCubo_IntegrationTests_Test8TestBodyEv
FNDA:1,_ZN35CortandoOCubo_IntegrationTests_Test8TestBodyEv
FN:156,_ZN35CortandoOCubo_IntegrationTests_TestC2Ev
FNDA:1,_ZN35CortandoOCubo_IntegrationTests_TestC2Ev
FN:222,_ZN42CirculoIntermediario_IntegrationTests_TestC2Ev
FNDA:1,_ZN42CirculoIntermediario_IntegrationTests_TestC2Ev
FN:222,_ZN42CirculoIntermediario_IntegrationTests_TestD0Ev
FNDA:1,_ZN42CirculoIntermediario_IntegrationTests_TestD0Ev
FN:222,_ZN42CirculoIntermediario_IntegrationTests_TestD2Ev
FNDA:1,_ZN42CirculoIntermediario_IntegrationTests_TestD2Ev
FN:222,_ZN42CirculoIntermediario_IntegrationTests_Test8TestBodyEv
FNDA:1,_ZN42CirculoIntermediario_IntegrationTests_Test8TestBodyEv
DA:35,1
DA:35,1
DA:35,1
DA:35,1
DA:38,1
DA:39,1
DA:40,1
DA:41,1
DA:47,1
DA:48,1
DA:49,1
DA:74,1
DA:74,1
DA:74,1
DA:74,1
DA:79,1
DA:83,1
DA:85,1
DA:90,1
DA:91,1
DA:92,1
DA:116,1
DA:116,1
DA:116,1
DA:116,1
DA:122,1
DA:124,1
DA:126,1
DA:156,1
DA:156,1
DA:156,1
DA:156,1
DA:160,1
DA:161,1
DA:165,1
DA:166,1
DA:167,1
DA:169,1
DA:170,1
DA:176,1
DA:177,1
DA:181,1
DA:183,1
DA:222,1
DA:222,1
DA:222,1
DA:222,1
DA:226,1
DA:227,1
DA:235,7
DA:236,7
DA:237,7
DA:238,1
DA:239,1
DA:243,1
end_of_record
SF:/home/luizcouto/School/EasyMath/tests/RectangularParallelipiped.cpp
FN:4,_ZN81RectangularParallelipipedTest_RectangularParallelipipedNonNegativeDimensions_TestC2Ev
FNDA:1,_ZN81RectangularParallelipipedTest_RectangularParallelipipedNonNegativeDimensions_TestC2Ev
FN:4,_ZN81RectangularParallelipipedTest_RectangularParallelipipedNonNegativeDimensions_Test8TestBodyEv
FNDA:1,_ZN81RectangularParallelipipedTest_RectangularParallelipipedNonNegativeDimensions_Test8TestBodyEv
FN:4,_ZN81RectangularParallelipipedTest_RectangularParallelipipedNonNegativeDimensions_TestD0Ev
FNDA:1,_ZN81RectangularParallelipipedTest_RectangularParallelipipedNonNegativeDimensions_TestD0Ev
FN:4,_ZN81RectangularParallelipipedTest_RectangularParallelipipedNonNegativeDimensions_TestD2Ev
FNDA:1,_ZN81RectangularParallelipipedTest_RectangularParallelipipedNonNegativeDimensions_TestD2Ev
FN:16,_ZN69RectangularParallelipipedTest_RectangularParallelipipedPerimeter_TestC2Ev
FNDA:1,_ZN69RectangularParallelipipedTest_RectangularParallelipipedPerimeter_TestC2Ev
FN:16,_ZN69RectangularParallelipipedTest_RectangularParallelipipedPerimeter_Test8TestBodyEv
FNDA:1,_ZN69RectangularParallelipipedTest_RectangularParallelipipedPerimeter_Test8TestBodyEv
FN:16,_ZN69RectangularParallelipipedTest_RectangularParallelipipedPerimeter_TestD2Ev
FNDA:1,_ZN69RectangularParallelipipedTest_RectangularParallelipipedPerimeter_TestD2Ev
FN:16,_ZN69RectangularParallelipipedTest_RectangularParallelipipedPerimeter_TestD0Ev
FNDA:1,_ZN69RectangularParallelipipedTest_RectangularParallelipipedPerimeter_TestD0Ev
FN:21,_ZN68RectangularParallelipipedTest_RectangularParallelipipedBaseArea_TestD0Ev
FNDA:1,_ZN68RectangularParallelipipedTest_RectangularParallelipipedBaseArea_TestD0Ev
FN:21,_ZN68RectangularParallelipipedTest_RectangularParallelipipedBaseArea_TestD2Ev
FNDA:1,_ZN68RectangularParallelipipedTest_RectangularParallelipipedBaseArea_TestD2Ev
FN:21,_ZN68RectangularParallelipipedTest_RectangularParallelipipedBaseArea_Test8TestBodyEv
FNDA:1,_ZN68RectangularParallelipipedTest_RectangularParallelipipedBaseArea_Test8TestBodyEv
FN:21,_ZN68RectangularParallelipipedTest_RectangularParallelipipedBaseArea_TestC2Ev
FNDA:1,_ZN68RectangularParallelipipedTest_RectangularParallelipipedBaseArea_TestC2Ev
FN:26,_ZN71RectangularParallelipipedTest_RectangularParallelipipedLateralArea_TestD0Ev
FNDA:1,_ZN71RectangularParallelipipedTest_RectangularParallelipipedLateralArea_TestD0Ev
FN:26,_ZN71RectangularParallelipipedTest_RectangularParallelipipedLateralArea_TestD2Ev
FNDA:1,_ZN71RectangularParallelipipedTest_RectangularParallelipipedLateralArea_TestD2Ev
FN:26,_ZN71RectangularParallelipipedTest_RectangularParallelipipedLateralArea_Test8TestBodyEv
FNDA:1,_ZN71RectangularParallelipipedTest_RectangularParallelipipedLateralArea_Test8TestBodyEv
FN:26,_ZN71RectangularParallelipipedTest_RectangularParallelipipedLateralArea_TestC2Ev
FNDA:1,_ZN71RectangularParallelipipedTest_RectangularParallelipipedLateralArea_TestC2Ev
FN:31,_ZN66RectangularParallelipipedTest_RectangularParallelipipedVolume_TestC2Ev
FNDA:1,_ZN66RectangularParallelipipedTest_RectangularParallelipipedVolume_TestC2Ev
FN:31,_ZN66RectangularParallelipipedTest_RectangularParallelipipedVolume_TestD0Ev
FNDA:1,_ZN66RectangularParallelipipedTest_RectangularParallelipipedVolume_TestD0Ev
FN:31,_ZN66RectangularParallelipipedTest_RectangularParallelipipedVolume_TestD2Ev
FNDA:1,_ZN66RectangularParallelipipedTest_RectangularParallelipipedVolume_TestD2Ev
FN:31,_ZN66RectangularParallelipipedTest_RectangularParallelipipedVolume_Test8TestBodyEv
FNDA:1,_ZN66RectangularParallelipipedTest_RectangularParallelipipedVolume_Test8TestBodyEv
DA:4,1
DA:4,1
DA:4,1
DA:4,1
DA:5,3
DA:13,1
DA:14,1
DA:16,1
DA:16,1
DA:16,1
DA:16,1
DA:17,1
DA:18,1
DA:21,1
DA:21,1
DA:21,1
DA:21,1
DA:22,1
DA:23,1
DA:26,1
DA:26,1
DA:26,1
DA:26,1
DA:27,1
DA:28,1
DA:31,1
DA:31,1
DA:31,1
DA:31,1
DA:32,1
DA:33,1
end_of_record
SF:/home/luizcouto/School/EasyMath/lib/RectangularParallelipiped.hpp
FN:14,_ZN25RectangularParallelipipedIdEC2Eddd
FNDA:5,_ZN25RectangularParallelipipedIdEC2Eddd
FN:24,_ZN25RectangularParallelipipedIdE9perimeterEv
FNDA:1,_ZN25RectangularParallelipipedIdE9perimeterEv
FN:28,_ZN25RectangularParallelipipedIdE8baseAreaEv
FNDA:1,_ZN25RectangularParallelipipedIdE8baseAreaEv
FN:32,_ZN25RectangularParallelipipedIdE11lateralAreaEv
FNDA:1,_ZN25RectangularParallelipipedIdE11lateralAreaEv
FN:36,_ZN25RectangularParallelipipedIdE6volumeEv
FNDA:1,_ZN25RectangularParallelipipedIdE6volumeEv
DA:14,5
DA:15,5
DA:16,1
DA:19,4
DA:20,4
DA:21,4
DA:22,4
DA:24,1
DA:25,1
DA:28,1
DA:29,1
DA:32,1
DA:33,1
DA:36,1
DA:37,1
end_of_record
SF:/home/luizcouto/School/EasyMath/tests/Triangle.cpp
FN:4,_ZN47TriangleTest_TriangleNonNegativeDimensions_TestC2Ev
FNDA:1,_ZN47TriangleTest_TriangleNonNegativeDimensions_TestC2Ev
FN:4,_ZN47TriangleTest_TriangleNonNegativeDimensions_Test8TestBodyEv
FNDA:1,_ZN47TriangleTest_TriangleNonNegativeDimensions_Test8TestBodyEv
FN:4,_ZN47TriangleTest_TriangleNonNegativeDimensions_TestD0Ev
FNDA:1,_ZN47TriangleTest_TriangleNonNegativeDimensions_TestD0Ev
FN:4,_ZN47TriangleTest_TriangleNonNegativeDimensions_TestD2Ev
FNDA:1,_ZN47TriangleTest_TriangleNonNegativeDimensions_TestD2Ev
FN:16,_ZN35TriangleTest_TrianglePerimeter_TestC2Ev
FNDA:1,_ZN35TriangleTest_TrianglePerimeter_TestC2Ev
FN:16,_ZN35TriangleTest_TrianglePerimeter_Test8TestBodyEv
FNDA:1,_ZN35TriangleTest_TrianglePerimeter_Test8TestBodyEv
FN:16,_ZN35TriangleTest_TrianglePerimeter_TestD2Ev
FNDA:1,_ZN35TriangleTest_TrianglePerimeter_TestD2Ev
FN:16,_ZN35TriangleTest_TrianglePerimeter_TestD0Ev
FNDA:1,_ZN35TriangleTest_TrianglePerimeter_TestD0Ev
FN:21,_ZN30TriangleTest_TriangleArea_TestD0Ev
FNDA:1,_ZN30TriangleTest_TriangleArea_TestD0Ev
FN:21,_ZN30TriangleTest_TriangleArea_TestD2Ev
FNDA:1,_ZN30TriangleTest_TriangleArea_TestD2Ev
FN:21,_ZN30TriangleTest_TriangleArea_Test8TestBodyEv
FNDA:1,_ZN30TriangleTest_TriangleArea_Test8TestBodyEv
FN:21,_ZN30TriangleTest_TriangleArea_TestC2Ev
FNDA:1,_ZN30TriangleTest_TriangleArea_TestC2Ev
FN:26,_ZN46TriangleTest_TriangleHeightRelativeToSide_TestD0Ev
FNDA:1,_ZN46TriangleTest_TriangleHeightRelativeToSide_TestD0Ev
FN:26,_ZN46TriangleTest_TriangleHeightRelativeToSide_TestD2Ev
FNDA:1,_ZN46TriangleTest_TriangleHeightRelativeToSide_TestD2Ev
FN:26,_ZN46TriangleTest_TriangleHeightRelativeToSide_Test8TestBodyEv
FNDA:1,_ZN46TriangleTest_TriangleHeightRelativeToSide_Test8TestBodyEv
FN:26,_ZN46TriangleTest_TriangleHeightRelativeToSide_TestC2Ev
FNDA:1,_ZN46TriangleTest_TriangleHeightRelativeToSide_TestC2Ev
FN:33,_ZN56TriangleTest_TriangleHeightRelativeToSideExceptions_TestC2Ev
FNDA:1,_ZN56TriangleTest_TriangleHeightRelativeToSideExceptions_TestC2Ev
FN:33,_ZN56TriangleTest_TriangleHeightRelativeToSideExceptions_TestD0Ev
FNDA:1,_ZN56TriangleTest_TriangleHeightRelativeToSideExceptions_TestD0Ev
FN:33,_ZN56TriangleTest_TriangleHeightRelativeToSideExceptions_TestD2Ev
FNDA:1,_ZN56TriangleTest_TriangleHeightRelativeToSideExceptions_TestD2Ev
FN:33,_ZN56TriangleTest_TriangleHeightRelativeToSideExceptions_Test8TestBodyEv
FNDA:1,_ZN56TriangleTest_TriangleHeightRelativeToSideExceptions_Test8TestBodyEv
DA:4,1
DA:4,1
DA:4,1
DA:4,1
DA:5,3
DA:13,1
DA:14,1
DA:16,1
DA:16,1
DA:16,1
DA:16,1
DA:17,1
DA:18,1
DA:21,1
DA:21,1
DA:21,1
DA:21,1
DA:22,1
DA:23,1
DA:26,1
DA:26,1
DA:26,1
DA:26,1
DA:27,1
DA:28,1
DA:29,1
DA:30,1
DA:33,1
DA:33,1
DA:33,1
DA:33,1
DA:34,1
DA:35,2
DA:43,1
DA:44,2
DA:52,1
DA:53,1
end_of_record
SF:/usr/include/c++/11/iomanip
FN:195,_ZSt12setprecisioni
FNDA:0,_ZSt12setprecisioni
DA:195,0
DA:196,0
end_of_record
SF:/home/luizcouto/School/EasyMath/tests/Cylinder.cpp
FN:4,_ZN43CylinderTest_CylinderNonNegativeRadius_TestC2Ev
FNDA:1,_ZN43CylinderTest_CylinderNonNegativeRadius_TestC2Ev
FN:4,_ZN43CylinderTest_CylinderNonNegativeRadius_TestD0Ev
FNDA:1,_ZN43CylinderTest_CylinderNonNegativeRadius_TestD0Ev
FN:4,_ZN43CylinderTest_CylinderNonNegativeRadius_TestD2Ev
FNDA:1,_ZN43CylinderTest_CylinderNonNegativeRadius_TestD2Ev
FN:4,_ZN43CylinderTest_CylinderNonNegativeRadius_Test8TestBodyEv
FNDA:1,_ZN43CylinderTest_CylinderNonNegativeRadius_Test8TestBodyEv
FN:16,_ZN30CylinderTest_CylinderArea_TestC2Ev
FNDA:1,_ZN30CylinderTest_CylinderArea_TestC2Ev
FN:16,_ZN30CylinderTest_CylinderArea_TestD0Ev
FNDA:1,_ZN30CylinderTest_CylinderArea_TestD0Ev
FN:16,_ZN30CylinderTest_CylinderArea_TestD2Ev
FNDA:1,_ZN30CylinderTest_CylinderArea_TestD2Ev
FN:16,_ZN30CylinderTest_CylinderArea_Test8TestBodyEv
FNDA:1,_ZN30CylinderTest_CylinderArea_Test8TestBodyEv
FN:21,_ZN32CylinderTest_CylinderVolume_TestC2Ev
FNDA:1,_ZN32CylinderTest_CylinderVolume_TestC2Ev
FN:21,_ZN32CylinderTest_CylinderVolume_TestD0Ev
FNDA:1,_ZN32CylinderTest_CylinderVolume_TestD0Ev
FN:21,_ZN32CylinderTest_CylinderVolume_TestD2Ev
FNDA:1,_ZN32CylinderTest_CylinderVolume_TestD2Ev
FN:21,_ZN32CylinderTest_CylinderVolume_Test8TestBodyEv
FNDA:1,_ZN32CylinderTest_CylinderVolume_Test8TestBodyEv
DA:4,1
DA:4,1
DA:4,1
DA:4,1
DA:5,3
DA:13,1
DA:14,1
DA:16,1
DA:16,1
DA:16,1
DA:16,1
DA:17,1
DA:18,1
DA:21,1
DA:21,1
DA:21,1
DA:21,1
DA:22,1
DA:23,1
end_of_record
SF:/usr/include/c++/11/bits/stl_iterator_base_funcs.h
FN:98,_ZSt10__distanceIPcENSt15iterator_traitsIT_E15difference_typeES2_S2_St26random_access_iterator_tag
FNDA:0,_ZSt10__distanceIPcENSt15iterator_traitsIT_E15difference_typeES2_S2_St26random_access_iterator_tag
FN:98,_ZSt10__distanceIPKcENSt15iterator_traitsIT_E15difference_typeES3_S3_St26random_access_iterator_tag
FNDA:65,_ZSt10__distanceIPKcENSt15iterator_traitsIT_E15difference_typeES3_S3_St26random_access_iterator_tag
FN:138,_ZSt8distanceIPcENSt15iterator_traitsIT_E15difference_typeES2_S2_
FNDA:0,_ZSt8distanceIPcENSt15iterator_traitsIT_E15difference_typeES2_S2_
FN:138,_ZSt8distanceIPKcENSt15iterator_traitsIT_E15difference_typeES3_S3_
FNDA:65,_ZSt8distanceIPKcENSt15iterator_traitsIT_E15difference_typeES3_S3_
DA:98,0
DA:104,0
DA:98,65
DA:104,65
DA:138,0
DA:141,0
DA:142,0
DA:138,65
DA:141,65
DA:142,130
end_of_record
SF:/home/luizcouto/School/EasyMath/lib/Square.hpp
FN:12,_ZN6SquareIdEC2Ed
FNDA:7,_ZN6SquareIdEC2Ed
FN:21,_ZN6SquareIdE4areaEv
FNDA:3,_ZN6SquareIdE4areaEv
FN:26,_ZN6SquareIdE9perimeterEv
FNDA:1,_ZN6SquareIdE9perimeterEv
FN:31,_ZN6SquareIdE8diagonalEv
FNDA:2,_ZN6SquareIdE8diagonalEv
DA:12,7
DA:14,7
DA:15,1
DA:18,6
DA:19,6
DA:21,3
DA:23,3
DA:26,1
DA:28,1
DA:31,2
DA:33,2
end_of_record
SF:/usr/include/c++/11/bits/move.h
FN:104,_ZSt4moveIRPNSt7__cxx1112basic_stringIcSt11char_traitsIcESaIcEEEEONSt16remove_referenceIT_E4typeEOS9_
FNDA:0,_ZSt4moveIRPNSt7__cxx1112basic_stringIcSt11char_traitsIcESaIcEEEEONSt16remove_referenceIT_E4typeEOS9_
FN:104,_ZSt4moveIRPNSt7__cxx1118basic_stringstreamIcSt11char_traitsIcESaIcEEEEONSt16remove_referenceIT_E4typeEOS9_
FNDA:0,_ZSt4moveIRPNSt7__cxx1118basic_stringstreamIcSt11char_traitsIcESaIcEEEEONSt16remove_referenceIT_E4typeEOS9_
FN:104,_ZSt4moveIRSaIcEEONSt16remove_referenceIT_E4typeEOS3_
FNDA:0,_ZSt4moveIRSaIcEEONSt16remove_referenceIT_E4typeEOS3_
DA:104,0
DA:105,0
DA:104,0
DA:105,0
DA:104,0
DA:105,0
end_of_record
SF:/home/luizcouto/School/EasyMath/tests/Sphere.cpp
FN:4,_ZN39SphereTest_SphereNonNegativeRadius_TestC2Ev
FNDA:1,_ZN39SphereTest_SphereNonNegativeRadius_TestC2Ev
FN:4,_ZN39SphereTest_SphereNonNegativeRadius_TestD0Ev
FNDA:1,_ZN39SphereTest_SphereNonNegativeRadius_TestD0Ev
FN:4,_ZN39SphereTest_SphereNonNegativeRadius_TestD2Ev
FNDA:1,_ZN39SphereTest_SphereNonNegativeRadius_TestD2Ev
FN:4,_ZN39SphereTest_SphereNonNegativeRadius_Test8TestBodyEv
FNDA:1,_ZN39SphereTest_SphereNonNegativeRadius_Test8TestBodyEv
FN:16,_ZN26SphereTest_SphereArea_TestC2Ev
FNDA:1,_ZN26SphereTest_SphereArea_TestC2Ev
FN:16,_ZN26SphereTest_SphereArea_TestD0Ev
FNDA:1,_ZN26SphereTest_SphereArea_TestD0Ev
FN:16,_ZN26SphereTest_SphereArea_TestD2Ev
FNDA:1,_ZN26SphereTest_SphereArea_TestD2Ev
FN:16,_ZN26SphereTest_SphereArea_Test8TestBodyEv
FNDA:1,_ZN26SphereTest_SphereArea_Test8TestBodyEv
FN:21,_ZN28SphereTest_SphereVolume_TestC2Ev
FNDA:1,_ZN28SphereTest_SphereVolume_TestC2Ev
FN:21,_ZN28SphereTest_SphereVolume_TestD0Ev
FNDA:1,_ZN28SphereTest_SphereVolume_TestD0Ev
FN:21,_ZN28SphereTest_SphereVolume_TestD2Ev
FNDA:1,_ZN28SphereTest_SphereVolume_TestD2Ev
FN:21,_ZN28SphereTest_SphereVolume_Test8TestBodyEv
FNDA:1,_ZN28SphereTest_SphereVolume_Test8TestBodyEv
FN:26,_ZN30SphereTest_SphereDiameter_TestC2Ev
FNDA:1,_ZN30SphereTest_SphereDiameter_TestC2Ev
FN:26,_ZN30SphereTest_SphereDiameter_TestD0Ev
FNDA:1,_ZN30SphereTest_SphereDiameter_TestD0Ev
FN:26,_ZN30SphereTest_SphereDiameter_TestD2Ev
FNDA:1,_ZN30SphereTest_SphereDiameter_TestD2Ev
FN:26,_ZN30SphereTest_SphereDiameter_Test8TestBodyEv
FNDA:1,_ZN30SphereTest_SphereDiameter_Test8TestBodyEv
DA:4,1
DA:4,1
DA:4,1
DA:4,1
DA:5,3
DA:13,1
DA:14,1
DA:16,1
DA:16,1
DA:16,1
DA:16,1
DA:17,1
DA:18,1
DA:21,1
DA:21,1
DA:21,1
DA:21,1
DA:22,1
DA:23,1
DA:26,1
DA:26,1
DA:26,1
DA:26,1
DA:27,1
DA:28,1
end_of_record
SF:/home/luizcouto/School/EasyMath/lib/HexagonalPrism.hpp
FN:13,_ZN14HexagonalPrismIdEC2Edd
FNDA:4,_ZN14HexagonalPrismIdEC2Edd
FN:26,_ZN14HexagonalPrismIdE6volumeEv
FNDA:1,_ZN14HexagonalPrismIdE6volumeEv
FN:31,_ZN14HexagonalPrismIdE4areaEv
FNDA:1,_ZN14HexagonalPrismIdE4areaEv
DA:13,4
DA:15,4
DA:16,1
DA:19,3
DA:20,1
DA:22,2
DA:23,2
DA:24,2
DA:26,1
DA:28,1
DA:31,1
DA:33,1
end_of_record
SF:/usr/include/c++/11/tuple
FN:120,_ZNSt10_Head_baseILm1ESt14default_deleteINSt7__cxx1118basic_stringstreamIcSt11char_traitsIcESaIcEEEELb1EE7_M_headERS8_
FNDA:0,_ZNSt10_Head_baseILm1ESt14default_deleteINSt7__cxx1118basic_stringstreamIcSt11char_traitsIcESaIcEEEELb1EE7_M_headERS8_
FN:120,_ZNSt10_Head_baseILm1ESt14default_deleteINSt7__cxx1112basic_stringIcSt11char_traitsIcESaIcEEEELb1EE7_M_headERS8_
FNDA:0,_ZNSt10_Head_baseILm1ESt14default_deleteINSt7__cxx1112basic_stringIcSt11char_traitsIcESaIcEEEELb1EE7_M_headERS8_
FN:219,_ZNSt10_Head_baseILm0EPNSt7__cxx1112basic_stringIcSt11char_traitsIcESaIcEEELb0EE7_M_headERS7_
FNDA:74,_ZNSt10_Head_baseILm0EPNSt7__cxx1112basic_stringIcSt11char_traitsIcESaIcEEELb0EE7_M_headERS7_
FN:219,_ZNSt10_Head_baseILm0EPNSt7__cxx1118basic_stringstreamIcSt11char_traitsIcESaIcEEELb0EE7_M_headERS7_
FNDA:0,_ZNSt10_Head_baseILm0EPNSt7__cxx1118basic_stringstreamIcSt11char_traitsIcESaIcEEELb0EE7_M_headERS7_
FN:222,_ZNSt10_Head_baseILm0EPNSt7__cxx1112basic_stringIcSt11char_traitsIcESaIcEEELb0EE7_M_headERKS7_
FNDA:0,_ZNSt10_Head_baseILm0EPNSt7__cxx1112basic_stringIcSt11char_traitsIcESaIcEEELb0EE7_M_headERKS7_
FN:254,_ZNSt11_Tuple_implILm0EJPNSt7__cxx1112basic_stringIcSt11char_traitsIcESaIcEEESt14default_deleteIS5_EEE7_M_headERS9_
FNDA:74,_ZNSt11_Tuple_implILm0EJPNSt7__cxx1112basic_stringIcSt11char_traitsIcESaIcEEESt14default_deleteIS5_EEE7_M_headERS9_
FN:254,_ZNSt11_Tuple_implILm0EJPNSt7__cxx1118basic_stringstreamIcSt11char_traitsIcESaIcEEESt14default_deleteIS5_EEE7_M_headERS9_
FNDA:0,_ZNSt11_Tuple_implILm0EJPNSt7__cxx1118basic_stringstreamIcSt11char_traitsIcESaIcEEESt14default_deleteIS5_EEE7_M_headERS9_
FN:257,_ZNSt11_Tuple_implILm0EJPNSt7__cxx1112basic_stringIcSt11char_traitsIcESaIcEEESt14default_deleteIS5_EEE7_M_headERKS9_
FNDA:0,_ZNSt11_Tuple_implILm0EJPNSt7__cxx1112basic_stringIcSt11char_traitsIcESaIcEEESt14default_deleteIS5_EEE7_M_headERKS9_
FN:415,_ZNSt11_Tuple_implILm1EJSt14default_deleteINSt7__cxx1112basic_stringIcSt11char_traitsIcESaIcEEEEEE7_M_headERS8_
FNDA:0,_ZNSt11_Tuple_implILm1EJSt14default_deleteINSt7__cxx1112basic_stringIcSt11char_traitsIcESaIcEEEEEE7_M_headERS8_
FN:415,_ZNSt11_Tuple_implILm1EJSt14default_deleteINSt7__cxx1118basic_stringstreamIcSt11char_traitsIcESaIcEEEEEE7_M_headERS8_
FNDA:0,_ZNSt11_Tuple_implILm1EJSt14default_deleteINSt7__cxx1118basic_stringstreamIcSt11char_traitsIcESaIcEEEEEE7_M_headERS8_
FN:1366,_ZSt12__get_helperILm1ESt14default_deleteINSt7__cxx1118basic_stringstreamIcSt11char_traitsIcESaIcEEEEJEERT0_RSt11_Tuple_implIXT_EJS8_DpT1_EE
FNDA:0,_ZSt12__get_helperILm1ESt14default_deleteINSt7__cxx1118basic_stringstreamIcSt11char_traitsIcESaIcEEEEJEERT0_RSt11_Tuple_implIXT_EJS8_DpT1_EE
FN:1366,_ZSt12__get_helperILm0EPNSt7__cxx1118basic_stringstreamIcSt11char_traitsIcESaIcEEEJSt14default_deleteIS5_EEERT0_RSt11_Tuple_implIXT_EJS9_DpT1_EE
FNDA:0,_ZSt12__get_helperILm0EPNSt7__cxx1118basic_stringstreamIcSt11char_traitsIcESaIcEEEJSt14default_deleteIS5_EEERT0_RSt11_Tuple_implIXT_EJS9_DpT1_EE
FN:1366,_ZSt12__get_helperILm0EPNSt7__cxx1112basic_stringIcSt11char_traitsIcESaIcEEEJSt14default_deleteIS5_EEERT0_RSt11_Tuple_implIXT_EJS9_DpT1_EE
FNDA:74,_ZSt12__get_helperILm0EPNSt7__cxx1112basic_stringIcSt11char_traitsIcESaIcEEEJSt14default_deleteIS5_EEERT0_RSt11_Tuple_implIXT_EJS9_DpT1_EE
FN:1366,_ZSt12__get_helperILm1ESt14default_deleteINSt7__cxx1112basic_stringIcSt11char_traitsIcESaIcEEEEJEERT0_RSt11_Tuple_implIXT_EJS8_DpT1_EE
FNDA:0,_ZSt12__get_helperILm1ESt14default_deleteINSt7__cxx1112basic_stringIcSt11char_traitsIcESaIcEEEEJEERT0_RSt11_Tuple_implIXT_EJS8_DpT1_EE
FN:1371,_ZSt12__get_helperILm0EPNSt7__cxx1112basic_stringIcSt11char_traitsIcESaIcEEEJSt14default_deleteIS5_EEERKT0_RKSt11_Tuple_implIXT_EJS9_DpT1_EE
FNDA:0,_ZSt12__get_helperILm0EPNSt7__cxx1112basic_stringIcSt11char_traitsIcESaIcEEEJSt14default_deleteIS5_EEERKT0_RKSt11_Tuple_implIXT_EJS9_DpT1_EE
FN:1382,_ZSt3getILm1EJPNSt7__cxx1112basic_stringIcSt11char_traitsIcESaIcEEESt14default_deleteIS5_EEERNSt13tuple_elementIXT_ESt5tupleIJDpT0_EEE4typeERSD_
FNDA:0,_ZSt3getILm1EJPNSt7__cxx1112basic_stringIcSt11char_traitsIcESaIcEEESt14default_deleteIS5_EEERNSt13tuple_elementIXT_ESt5tupleIJDpT0_EEE4typeERSD_
FN:1382,_ZSt3getILm1EJPNSt7__cxx1118basic_stringstreamIcSt11char_traitsIcESaIcEEESt14default_deleteIS5_EEERNSt13tuple_elementIXT_ESt5tupleIJDpT0_EEE4typeERSD_
FNDA:0,_ZSt3getILm1EJPNSt7__cxx1118basic_stringstreamIcSt11char_traitsIcESaIcEEESt14default_deleteIS5_EEERNSt13tuple_elementIXT_ESt5tupleIJDpT0_EEE4typeERSD_
FN:1382,_ZSt3getILm0EJPNSt7__cxx1112basic_stringIcSt11char_traitsIcESaIcEEESt14default_deleteIS5_EEERNSt13tuple_elementIXT_ESt5tupleIJDpT0_EEE4typeERSD_
FNDA:74,_ZSt3getILm0EJPNSt7__cxx1112basic_stringIcSt11char_traitsIcESaIcEEESt14default_deleteIS5_EEERNSt13tuple_elementIXT_ESt5tupleIJDpT0_EEE4typeERSD_
FN:1382,_ZSt3getILm0EJPNSt7__cxx1118basic_stringstreamIcSt11char_traitsIcESaIcEEESt14default_deleteIS5_EEERNSt13tuple_elementIXT_ESt5tupleIJDpT0_EEE4typeERSD_
FNDA:0,_ZSt3getILm0EJPNSt7__cxx1118basic_stringstreamIcSt11char_traitsIcESaIcEEESt14default_deleteIS5_EEERNSt13tuple_elementIXT_ESt5tupleIJDpT0_EEE4typeERSD_
FN:1388,_ZSt3getILm0EJPNSt7__cxx1112basic_stringIcSt11char_traitsIcESaIcEEESt14default_deleteIS5_EEERKNSt13tuple_elementIXT_ESt5tupleIJDpT0_EEE4typeERKSD_
FNDA:0,_ZSt3getILm0EJPNSt7__cxx1112basic_stringIcSt11char_traitsIcESaIcEEESt14default_deleteIS5_EEERKNSt13tuple_elementIXT_ESt5tupleIJDpT0_EEE4typeERKSD_
DA:120,0
DA:120,0
DA:219,74
DA:219,0
DA:222,0
DA:254,74
DA:254,0
DA:257,0
DA:415,0
DA:415,0
DA:1366,0
DA:1367,0
DA:1366,0
DA:1367,0
DA:1366,74
DA:1367,74
DA:1366,0
DA:1367,0
DA:1371,0
DA:1372,0
DA:1382,0
DA:1383,0
DA:1382,0
DA:1383,0
DA:1382,74
DA:1383,74
DA:1382,0
DA:1383,0
DA:1388,0
DA:1389,0
end_of_record
SF:/usr/include/c++/11/ext/type_traits.h
FN:152,_ZN9__gnu_cxx17__is_null_pointerIcEEbPT_
FNDA:0,_ZN9__gnu_cxx17__is_null_pointerIcEEbPT_
FN:152,_ZN9__gnu_cxx17__is_null_pointerIKcEEbPT_
FNDA:65,_ZN9__gnu_cxx17__is_null_pointerIKcEEbPT_
DA:152,0
DA:153,0
DA:152,65
DA:153,65
end_of_record
SF:/home/luizcouto/School/EasyMath/lib/PentagonalPrism.hpp
FN:18,_ZN15PentagonalPrismIdEC2Edd
FNDA:3,_ZN15PentagonalPrismIdEC2Edd
FN:27,_ZN15PentagonalPrismIdE4areaEv
FNDA:1,_ZN15PentagonalPrismIdE4areaEv
FN:33,_ZN15PentagonalPrismIdE6volumeEv
FNDA:1,_ZN15PentagonalPrismIdE6volumeEv
DA:18,3
DA:19,3
DA:20,1
DA:22,2
DA:23,2
DA:24,2
DA:25,2
DA:27,1
DA:28,1
DA:29,1
DA:30,1
DA:33,1
DA:34,1
end_of_record
SF:/usr/include/c++/11/bits/char_traits.h
FN:106,_ZN9__gnu_cxx11char_traitsIcE2eqERKcS3_
FNDA:0,_ZN9__gnu_cxx11char_traitsIcE2eqERKcS3_
FN:167,_ZN9__gnu_cxx11char_traitsIcE6lengthEPKc
FNDA:0,_ZN9__gnu_cxx11char_traitsIcE6lengthEPKc
FN:365,_ZNSt11char_traitsIcE6lengthEPKc
FNDA:65,_ZNSt11char_traitsIcE6lengthEPKc
FN:401,_ZNSt11char_traitsIcE4copyEPcPKcm
FNDA:0,_ZNSt11char_traitsIcE4copyEPcPKcm
DA:106,0
DA:107,0
DA:167,0
DA:170,0
DA:171,0
DA:172,0
DA:173,0
DA:262,65
DA:365,65
DA:368,65
DA:369,0
DA:371,65
DA:401,0
DA:403,0
DA:404,0
DA:409,0
end_of_record
SF:/usr/include/c++/11/iostream
end_of_record
SF:/usr/include/gtest/gtest.h
FN:324,_ZNK7testing15AssertionResultcvbEv
FNDA:74,_ZNK7testing15AssertionResultcvbEv
FN:333,_ZNK7testing15AssertionResult7messageEv
FNDA:0,_ZNK7testing15AssertionResult7messageEv
FN:337,_ZNK7testing15AssertionResult15failure_messageEv
FNDA:0,_ZNK7testing15AssertionResult15failure_messageEv
FN:427,_ZN7testing4Test14SetUpTestSuiteEv
FNDA:0,_ZN7testing4Test14SetUpTestSuiteEv
FN:435,_ZN7testing4Test17TearDownTestSuiteEv
FNDA:0,_ZN7testing4Test17TearDownTestSuiteEv
FN:440,_ZN7testing4Test16TearDownTestCaseEv
FNDA:0,_ZN7testing4Test16TearDownTestCaseEv
FN:441,_ZN7testing4Test13SetUpTestCaseEv
FNDA:0,_ZN7testing4Test13SetUpTestCaseEv
FN:522,_ZN7testing4Test5SetupEv
FNDA:0,_ZN7testing4Test5SetupEv
FN:1522,_ZN7testing8internal18CmpHelperEQFailureIidEENS_15AssertionResultEPKcS4_RKT_RKT0_
FNDA:0,_ZN7testing8internal18CmpHelperEQFailureIidEENS_15AssertionResultEPKcS4_RKT_RKT0_
FN:1522,_ZN7testing8internal18CmpHelperEQFailureIddEENS_15AssertionResultEPKcS4_RKT_RKT0_
FNDA:0,_ZN7testing8internal18CmpHelperEQFailureIddEENS_15AssertionResultEPKcS4_RKT_RKT0_
FN:1522,_ZN7testing8internal18CmpHelperEQFailureIdiEENS_15AssertionResultEPKcS4_RKT_RKT0_
FNDA:0,_ZN7testing8internal18CmpHelperEQFailureIdiEENS_15AssertionResultEPKcS4_RKT_RKT0_
FN:1541,_ZN7testing8internal11CmpHelperEQIddEENS_15AssertionResultEPKcS4_RKT_RKT0_
FNDA:17,_ZN7testing8internal11CmpHelperEQIddEENS_15AssertionResultEPKcS4_RKT_RKT0_
FN:1541,_ZN7testing8internal11CmpHelperEQIidEENS_15AssertionResultEPKcS4_RKT_RKT0_
FNDA:8,_ZN7testing8internal11CmpHelperEQIidEENS_15AssertionResultEPKcS4_RKT_RKT0_
FN:1541,_ZN7testing8internal11CmpHelperEQIdiEENS_15AssertionResultEPKcS4_RKT_RKT0_
FNDA:2,_ZN7testing8internal11CmpHelperEQIdiEENS_15AssertionResultEPKcS4_RKT_RKT0_
FN:1569,_ZN7testing8internal8EqHelper7CompareIddLPv0EEENS_15AssertionResultEPKcS6_RKT_RKT0_
FNDA:17,_ZN7testing8internal8EqHelper7CompareIddLPv0EEENS_15AssertionResultEPKcS6_RKT_RKT0_
FN:1569,_ZN7testing8internal8EqHelper7CompareIidLPv0EEENS_15AssertionResultEPKcS6_RKT_RKT0_
FNDA:8,_ZN7testing8internal8EqHelper7CompareIidLPv0EEENS_15AssertionResultEPKcS6_RKT_RKT0_
FN:1569,_ZN7testing8internal8EqHelper7CompareIdiLPv0EEENS_15AssertionResultEPKcS6_RKT_RKT0_
FNDA:2,_ZN7testing8internal8EqHelper7CompareIdiLPv0EEENS_15AssertionResultEPKcS6_RKT_RKT0_
FN:1748,_ZN7testing8internal24CmpHelperFloatingPointEQIfEENS_15AssertionResultEPKcS4_T_S5_
FNDA:11,_ZN7testing8internal24CmpHelperFloatingPointEQIfEENS_15AssertionResultEPKcS4_T_S5_
FN:2485,_Z13RUN_ALL_TESTSv
FNDA:1,_Z13RUN_ALL_TESTSv
DA:324,74
DA:333,0
DA:334,0
DA:337,0
DA:427,0
DA:435,0
DA:440,0
DA:441,0
DA:522,0
DA:1522,0
DA:1529,0
DA:1522,0
DA:1529,0
DA:1522,0
DA:1529,0
DA:1541,2
DA:1545,2
DA:1546,2
DA:1549,0
DA:1541,8
DA:1545,8
DA:1546,8
DA:1549,0
DA:1541,17
DA:1545,17
DA:1546,17
DA:1549,0
DA:1569,2
DA:1572,2
DA:1569,8
DA:1572,8
DA:1569,17
DA:1572,17
DA:1748,11
DA:1752,11
DA:1754,11
DA:1755,11
DA:1758,0
DA:1759,0
DA:1760,0
DA:1762,0
DA:1763,0
DA:1764,0
DA:1770,0
DA:1771,0
DA:2485,1
DA:2486,1
end_of_record
SF:/home/luizcouto/School/EasyMath/tests/Hexagon.cpp
FN:4,_ZN46EasyMathHexagonTest_HexagonNoNegativeSide_TestC2Ev
FNDA:1,_ZN46EasyMathHexagonTest_HexagonNoNegativeSide_TestC2Ev
FN:4,_ZN46EasyMathHexagonTest_HexagonNoNegativeSide_TestD0Ev
FNDA:1,_ZN46EasyMathHexagonTest_HexagonNoNegativeSide_TestD0Ev
FN:4,_ZN46EasyMathHexagonTest_HexagonNoNegativeSide_TestD2Ev
FNDA:1,_ZN46EasyMathHexagonTest_HexagonNoNegativeSide_TestD2Ev
FN:4,_ZN46EasyMathHexagonTest_HexagonNoNegativeSide_Test8TestBodyEv
FNDA:1,_ZN46EasyMathHexagonTest_HexagonNoNegativeSide_Test8TestBodyEv
FN:18,_ZN36EasyMathHexagonTest_HexagonArea_TestC2Ev
FNDA:1,_ZN36EasyMathHexagonTest_HexagonArea_TestC2Ev
FN:18,_ZN36EasyMathHexagonTest_HexagonArea_TestD0Ev
FNDA:1,_ZN36EasyMathHexagonTest_HexagonArea_TestD0Ev
FN:18,_ZN36EasyMathHexagonTest_HexagonArea_TestD2Ev
FNDA:1,_ZN36EasyMathHexagonTest_HexagonArea_TestD2Ev
FN:18,_ZN36EasyMathHexagonTest_HexagonArea_Test8TestBodyEv
FNDA:1,_ZN36EasyMathHexagonTest_HexagonArea_Test8TestBodyEv
FN:23,_ZN41EasyMathHexagonTest_HexagonPerimeter_TestC2Ev
FNDA:1,_ZN41EasyMathHexagonTest_HexagonPerimeter_TestC2Ev
FN:23,_ZN41EasyMathHexagonTest_HexagonPerimeter_TestD0Ev
FNDA:1,_ZN41EasyMathHexagonTest_HexagonPerimeter_TestD0Ev
FN:23,_ZN41EasyMathHexagonTest_HexagonPerimeter_TestD2Ev
FNDA:1,_ZN41EasyMathHexagonTest_HexagonPerimeter_TestD2Ev
FN:23,_ZN41EasyMathHexagonTest_HexagonPerimeter_Test8TestBodyEv
FNDA:1,_ZN41EasyMathHexagonTest_HexagonPerimeter_Test8TestBodyEv
FN:28,_ZN40EasyMathHexagonTest_HexagonDiagonal_TestC2Ev
FNDA:1,_ZN40EasyMathHexagonTest_HexagonDiagonal_TestC2Ev
FN:28,_ZN40EasyMathHexagonTest_HexagonDiagonal_TestD0Ev
FNDA:1,_ZN40EasyMathHexagonTest_HexagonDiagonal_TestD0Ev
FN:28,_ZN40EasyMathHexagonTest_HexagonDiagonal_TestD2Ev
FNDA:1,_ZN40EasyMathHexagonTest_HexagonDiagonal_TestD2Ev
FN:28,_ZN40EasyMathHexagonTest_HexagonDiagonal_Test8TestBodyEv
FNDA:1,_ZN40EasyMathHexagonTest_HexagonDiagonal_Test8TestBodyEv
DA:4,1
DA:4,1
DA:4,1
DA:4,1
DA:5,3
DA:15,1
DA:16,1
DA:18,1
DA:18,1
DA:18,1
DA:18,1
DA:19,1
DA:20,1
DA:23,1
DA:23,1
DA:23,1
DA:23,1
DA:24,1
DA:25,1
DA:28,1
DA:28,1
DA:28,1
DA:28,1
DA:29,1
DA:30,1
end_of_record
SF:/home/luizcouto/School/EasyMath/lib/Pyramid.hpp
FN:13,_ZN7PyramidIdEC2Edd
FNDA:4,_ZN7PyramidIdEC2Edd
FN:25,_ZN7PyramidIdE6volumeEv
FNDA:1,_ZN7PyramidIdE6volumeEv
FN:30,_ZN7PyramidIdE4areaEv
FNDA:1,_ZN7PyramidIdE4areaEv
DA:13,4
DA:15,4
DA:16,1
DA:18,3
DA:19,1
DA:21,2
DA:22,2
DA:23,2
DA:25,1
DA:27,1
DA:30,1
DA:32,1
end_of_record
SF:/home/luizcouto/School/EasyMath/tests/PentagonalPrism.cpp
FN:4,_ZN55PentagonalPrismTest_PentagonalPrismNonNegativeSide_TestC2Ev
FNDA:1,_ZN55PentagonalPrismTest_PentagonalPrismNonNegativeSide_TestC2Ev
FN:4,_ZN55PentagonalPrismTest_PentagonalPrismNonNegativeSide_TestD0Ev
FNDA:1,_ZN55PentagonalPrismTest_PentagonalPrismNonNegativeSide_TestD0Ev
FN:4,_ZN55PentagonalPrismTest_PentagonalPrismNonNegativeSide_TestD2Ev
FNDA:1,_ZN55PentagonalPrismTest_PentagonalPrismNonNegativeSide_TestD2Ev
FN:4,_ZN55PentagonalPrismTest_PentagonalPrismNonNegativeSide_Test8TestBodyEv
FNDA:1,_ZN55PentagonalPrismTest_PentagonalPrismNonNegativeSide_Test8TestBodyEv
FN:16,_ZN44PentagonalPrismTest_PentagonalPrismArea_TestC2Ev
FNDA:1,_ZN44PentagonalPrismTest_PentagonalPrismArea_TestC2Ev
FN:16,_ZN44PentagonalPrismTest_PentagonalPrismArea_TestD0Ev
FNDA:1,_ZN44PentagonalPrismTest_PentagonalPrismArea_TestD0Ev
FN:16,_ZN44PentagonalPrismTest_PentagonalPrismArea_TestD2Ev
FNDA:1,_ZN44PentagonalPrismTest_PentagonalPrismArea_TestD2Ev
FN:16,_ZN44PentagonalPrismTest_PentagonalPrismArea_Test8TestBodyEv
FNDA:1,_ZN44PentagonalPrismTest_PentagonalPrismArea_Test8TestBodyEv
FN:21,_ZN46PentagonalPrismTest_PentagonalPrismVolume_TestC2Ev
FNDA:1,_ZN46PentagonalPrismTest_PentagonalPrismVolume_TestC2Ev
FN:21,_ZN46PentagonalPrismTest_PentagonalPrismVolume_TestD0Ev
FNDA:1,_ZN46PentagonalPrismTest_PentagonalPrismVolume_TestD0Ev
FN:21,_ZN46PentagonalPrismTest_PentagonalPrismVolume_TestD2Ev
FNDA:1,_ZN46PentagonalPrismTest_PentagonalPrismVolume_TestD2Ev
FN:21,_ZN46PentagonalPrismTest_PentagonalPrismVolume_Test8TestBodyEv
FNDA:1,_ZN46PentagonalPrismTest_PentagonalPrismVolume_Test8TestBodyEv
DA:4,1
DA:4,1
DA:4,1
DA:4,1
DA:5,3
DA:13,1
DA:14,1
DA:16,1
DA:16,1
DA:16,1
DA:16,1
DA:17,1
DA:18,1
DA:21,1
DA:21,1
DA:21,1
DA:21,1
DA:22,1
DA:23,1
end_of_record
SF:/home/luizcouto/School/EasyMath/tests/Pentagon.cpp
FN:4,_ZN41PentagonTest_PentagonNonNegativeSide_TestC2Ev
FNDA:1,_ZN41PentagonTest_PentagonNonNegativeSide_TestC2Ev
FN:4,_ZN41PentagonTest_PentagonNonNegativeSide_TestD0Ev
FNDA:1,_ZN41PentagonTest_PentagonNonNegativeSide_TestD0Ev
FN:4,_ZN41PentagonTest_PentagonNonNegativeSide_TestD2Ev
FNDA:1,_ZN41PentagonTest_PentagonNonNegativeSide_TestD2Ev
FN:4,_ZN41PentagonTest_PentagonNonNegativeSide_Test8TestBodyEv
FNDA:1,_ZN41PentagonTest_PentagonNonNegativeSide_Test8TestBodyEv
FN:16,_ZN30PentagonTest_PentagonArea_TestC2Ev
FNDA:1,_ZN30PentagonTest_PentagonArea_TestC2Ev
FN:16,_ZN30PentagonTest_PentagonArea_TestD0Ev
FNDA:1,_ZN30PentagonTest_PentagonArea_TestD0Ev
FN:16,_ZN30PentagonTest_PentagonArea_TestD2Ev
FNDA:1,_ZN30PentagonTest_PentagonArea_TestD2Ev
FN:16,_ZN30PentagonTest_PentagonArea_Test8TestBodyEv
FNDA:1,_ZN30PentagonTest_PentagonArea_Test8TestBodyEv
FN:21,_ZN35PentagonTest_PentagonPerimeter_TestC2Ev
FNDA:1,_ZN35PentagonTest_PentagonPerimeter_TestC2Ev
FN:21,_ZN35PentagonTest_PentagonPerimeter_TestD0Ev
FNDA:1,_ZN35PentagonTest_PentagonPerimeter_TestD0Ev
FN:21,_ZN35PentagonTest_PentagonPerimeter_TestD2Ev
FNDA:1,_ZN35PentagonTest_PentagonPerimeter_TestD2Ev
FN:21,_ZN35PentagonTest_PentagonPerimeter_Test8TestBodyEv
FNDA:1,_ZN35PentagonTest_PentagonPerimeter_Test8TestBodyEv
DA:4,1
DA:4,1
DA:4,1
DA:4,1
DA:5,3
DA:13,1
DA:14,1
DA:16,1
DA:16,1
DA:16,1
DA:16,1
DA:17,1
DA:18,1
DA:21,1
DA:21,1
DA:21,1
DA:21,1
DA:22,1
DA:23,1
end_of_record
SF:/home/luizcouto/School/EasyMath/tests/Pyramid.cpp
FN:4,_ZN46EasyMathPyramidTest_PyramidNoNegativeSide_TestC2Ev
FNDA:1,_ZN46EasyMathPyramidTest_PyramidNoNegativeSide_TestC2Ev
FN:4,_ZN46EasyMathPyramidTest_PyramidNoNegativeSide_TestD0Ev
FNDA:1,_ZN46EasyMathPyramidTest_PyramidNoNegativeSide_TestD0Ev
FN:4,_ZN46EasyMathPyramidTest_PyramidNoNegativeSide_TestD2Ev
FNDA:1,_ZN46EasyMathPyramidTest_PyramidNoNegativeSide_TestD2Ev
FN:4,_ZN46EasyMathPyramidTest_PyramidNoNegativeSide_Test8TestBodyEv
FNDA:1,_ZN46EasyMathPyramidTest_PyramidNoNegativeSide_Test8TestBodyEv
FN:30,_ZN38EasyMathPyramidTest_PyramidVolume_TestC2Ev
FNDA:1,_ZN38EasyMathPyramidTest_PyramidVolume_TestC2Ev
FN:30,_ZN38EasyMathPyramidTest_PyramidVolume_TestD0Ev
FNDA:1,_ZN38EasyMathPyramidTest_PyramidVolume_TestD0Ev
FN:30,_ZN38EasyMathPyramidTest_PyramidVolume_TestD2Ev
FNDA:1,_ZN38EasyMathPyramidTest_PyramidVolume_TestD2Ev
FN:30,_ZN38EasyMathPyramidTest_PyramidVolume_Test8TestBodyEv
FNDA:1,_ZN38EasyMathPyramidTest_PyramidVolume_Test8TestBodyEv
FN:35,_ZN36EasyMathPyramidTest_PyramidArea_TestC2Ev
FNDA:1,_ZN36EasyMathPyramidTest_PyramidArea_TestC2Ev
FN:35,_ZN36EasyMathPyramidTest_PyramidArea_TestD0Ev
FNDA:1,_ZN36EasyMathPyramidTest_PyramidArea_TestD0Ev
FN:35,_ZN36EasyMathPyramidTest_PyramidArea_TestD2Ev
FNDA:1,_ZN36EasyMathPyramidTest_PyramidArea_TestD2Ev
FN:35,_ZN36EasyMathPyramidTest_PyramidArea_Test8TestBodyEv
FNDA:1,_ZN36EasyMathPyramidTest_PyramidArea_Test8TestBodyEv
DA:4,1
DA:4,1
DA:4,1
DA:4,1
DA:5,3
DA:15,1
DA:17,3
DA:27,1
DA:28,1
DA:30,1
DA:30,1
DA:30,1
DA:30,1
DA:31,1
DA:32,1
DA:35,1
DA:35,1
DA:35,1
DA:35,1
DA:36,1
DA:37,1
end_of_record
SF:/usr/include/gtest/gtest-message.h
end_of_record
SF:/usr/include/gtest/internal/gtest-internal.h
FN:298,_ZN7testing8internal13FloatingPointIfEC2ERKf
FNDA:22,_ZN7testing8internal13FloatingPointIfEC2ERKf
FN:325,_ZNK7testing8internal13FloatingPointIfE13exponent_bitsEv
FNDA:22,_ZNK7testing8internal13FloatingPointIfE13exponent_bitsEv
FN:328,_ZNK7testing8internal13FloatingPointIfE13fraction_bitsEv
FNDA:0,_ZNK7testing8internal13FloatingPointIfE13fraction_bitsEv
FN:334,_ZNK7testing8internal13FloatingPointIfE6is_nanEv
FNDA:22,_ZNK7testing8internal13FloatingPointIfE6is_nanEv
FN:346,_ZNK7testing8internal13FloatingPointIfE12AlmostEqualsERKS2_
FNDA:11,_ZNK7testing8internal13FloatingPointIfE12AlmostEqualsERKS2_
FN:377,_ZN7testing8internal13FloatingPointIfE24SignAndMagnitudeToBiasedERKj
FNDA:22,_ZN7testing8internal13FloatingPointIfE24SignAndMagnitudeToBiasedERKj
FN:389,_ZN7testing8internal13FloatingPointIfE38DistanceBetweenSignAndMagnitudeNumbersERKjS4_
FNDA:11,_ZN7testing8internal13FloatingPointIfE38DistanceBetweenSignAndMagnitudeNumbersERKjS4_
FN:454,_ZN7testing8internal15TestFactoryBaseD2Ev
FNDA:65,_ZN7testing8internal15TestFactoryBaseD2Ev
FN:454,_ZN7testing8internal15TestFactoryBaseD0Ev
FNDA:0,_ZN7testing8internal15TestFactoryBaseD0Ev
FN:461,_ZN7testing8internal15TestFactoryBaseC2Ev
FNDA:65,_ZN7testing8internal15TestFactoryBaseC2Ev
FN:472,_ZN7testing8internal15TestFactoryImplI62EasyMathHexagonalPrismsTest_HexagonalPrismsNoNegativeSide_TestE10CreateTestEv
FNDA:1,_ZN7testing8internal15TestFactoryImplI62EasyMathHexagonalPrismsTest_HexagonalPrismsNoNegativeSide_TestE10CreateTestEv
FN:472,_ZN7testing8internal15TestFactoryImplI39SphereTest_SphereNonNegativeRadius_TestE10CreateTestEv
FNDA:1,_ZN7testing8internal15TestFactoryImplI39SphereTest_SphereNonNegativeRadius_TestE10CreateTestEv
FN:472,_ZN7testing8internal15TestFactoryImplI40EasyMathHexagonTest_HexagonDiagonal_TestE10CreateTestEv
FNDA:1,_ZN7testing8internal15TestFactoryImplI40EasyMathHexagonTest_HexagonDiagonal_TestE10CreateTestEv
FN:472,_ZN7testing8internal15TestFactoryImplI41EasyMathHexagonTest_HexagonPerimeter_TestE10CreateTestEv
FNDA:1,_ZN7testing8internal15TestFactoryImplI41EasyMathHexagonTest_HexagonPerimeter_TestE10CreateTestEv
FN:472,_ZN7testing8internal15TestFactoryImplI36EasyMathHexagonTest_HexagonArea_TestE10CreateTestEv
FNDA:1,_ZN7testing8internal15TestFactoryImplI36EasyMathHexagonTest_HexagonArea_TestE10CreateTestEv
FN:472,_ZN7testing8internal15TestFactoryImplI46EasyMathHexagonTest_HexagonNoNegativeSide_TestE10CreateTestEv
FNDA:1,_ZN7testing8internal15TestFactoryImplI46EasyMathHexagonTest_HexagonNoNegativeSide_TestE10CreateTestEv
FN:472,_ZN7testing8internal15TestFactoryImplI38EasyMathSquareTest_SquareDiagonal_TestE10CreateTestEv
FNDA:1,_ZN7testing8internal15TestFactoryImplI38EasyMathSquareTest_SquareDiagonal_TestE10CreateTestEv
FN:472,_ZN7testing8internal15TestFactoryImplI39EasyMathSquareTest_SquarePerimeter_TestE10CreateTestEv
FNDA:1,_ZN7testing8internal15TestFactoryImplI39EasyMathSquareTest_SquarePerimeter_TestE10CreateTestEv
FN:472,_ZN7testing8internal15TestFactoryImplI34EasyMathSquareTest_SquareArea_TestE10CreateTestEv
FNDA:1,_ZN7testing8internal15TestFactoryImplI34EasyMathSquareTest_SquareArea_TestE10CreateTestEv
FN:472,_ZN7testing8internal15TestFactoryImplI44EasyMathSquareTest_SquareNoNegativeSide_TestE10CreateTestEv
FNDA:1,_ZN7testing8internal15TestFactoryImplI44EasyMathSquareTest_SquareNoNegativeSide_TestE10CreateTestEv
FN:472,_ZN7testing8internal15TestFactoryImplI30SphereTest_SphereDiameter_TestE10CreateTestEv
FNDA:1,_ZN7testing8internal15TestFactoryImplI30SphereTest_SphereDiameter_TestE10CreateTestEv
FN:472,_ZN7testing8internal15TestFactoryImplI47TriangleTest_TriangleNonNegativeDimensions_TestE10CreateTestEv
FNDA:1,_ZN7testing8internal15TestFactoryImplI47TriangleTest_TriangleNonNegativeDimensions_TestE10CreateTestEv
FN:472,_ZN7testing8internal15TestFactoryImplI26SphereTest_SphereArea_TestE10CreateTestEv
FNDA:1,_ZN7testing8internal15TestFactoryImplI26SphereTest_SphereArea_TestE10CreateTestEv
FN:472,_ZN7testing8internal15TestFactoryImplI28SphereTest_SphereVolume_TestE10CreateTestEv
FNDA:1,_ZN7testing8internal15TestFactoryImplI28SphereTest_SphereVolume_TestE10CreateTestEv
FN:472,_ZN7testing8internal15TestFactoryImplI52EasyMathHexagonalPrismsTest_HexagonalPrismsArea_TestE10CreateTestEv
FNDA:1,_ZN7testing8internal15TestFactoryImplI52EasyMathHexagonalPrismsTest_HexagonalPrismsArea_TestE10CreateTestEv
FN:472,_ZN7testing8internal15TestFactoryImplI57EasyMathHexagonalPrismsTest_HexagonalPrismsPerimeter_TestE10CreateTestEv
FNDA:1,_ZN7testing8internal15TestFactoryImplI57EasyMathHexagonalPrismsTest_HexagonalPrismsPerimeter_TestE10CreateTestEv
FN:472,_ZN7testing8internal15TestFactoryImplI46EasyMathPyramidTest_PyramidNoNegativeSide_TestE10CreateTestEv
FNDA:1,_ZN7testing8internal15TestFactoryImplI46EasyMathPyramidTest_PyramidNoNegativeSide_TestE10CreateTestEv
FN:472,_ZN7testing8internal15TestFactoryImplI38EasyMathPyramidTest_PyramidVolume_TestE10CreateTestEv
FNDA:1,_ZN7testing8internal15TestFactoryImplI38EasyMathPyramidTest_PyramidVolume_TestE10CreateTestEv
FN:472,_ZN7testing8internal15TestFactoryImplI36EasyMathPyramidTest_PyramidArea_TestE10CreateTestEv
FNDA:1,_ZN7testing8internal15TestFactoryImplI36EasyMathPyramidTest_PyramidArea_TestE10CreateTestEv
FN:472,_ZN7testing8internal15TestFactoryImplI50EasyMathRectangleTest_RectangleNoNegativeSide_TestE10CreateTestEv
FNDA:1,_ZN7testing8internal15TestFactoryImplI50EasyMathRectangleTest_RectangleNoNegativeSide_TestE10CreateTestEv
FN:472,_ZN7testing8internal15TestFactoryImplI45EasyMathRectangleTest_RectanglePerimeter_TestE10CreateTestEv
FNDA:1,_ZN7testing8internal15TestFactoryImplI45EasyMathRectangleTest_RectanglePerimeter_TestE10CreateTestEv
FN:472,_ZN7testing8internal15TestFactoryImplI40EasyMathRectangleTest_RectangleArea_TestE10CreateTestEv
FNDA:1,_ZN7testing8internal15TestFactoryImplI40EasyMathRectangleTest_RectangleArea_TestE10CreateTestEv
FN:472,_ZN7testing8internal15TestFactoryImplI44EasyMathRectangleTest_RectangleDiagonal_TestE10CreateTestEv
FNDA:1,_ZN7testing8internal15TestFactoryImplI44EasyMathRectangleTest_RectangleDiagonal_TestE10CreateTestEv
FN:472,_ZN7testing8internal15TestFactoryImplI36DobrandoPapeis_IntegrationTests_TestE10CreateTestEv
FNDA:1,_ZN7testing8internal15TestFactoryImplI36DobrandoPapeis_IntegrationTests_TestE10CreateTestEv
FN:472,_ZN7testing8internal15TestFactoryImplI38DivisaoDoTerreno_IntegrationTests_TestE10CreateTestEv
FNDA:1,_ZN7testing8internal15TestFactoryImplI38DivisaoDoTerreno_IntegrationTests_TestE10CreateTestEv
FN:472,_ZN7testing8internal15TestFactoryImplI45OsTriangulosEquilateros_IntegrationTests_TestE10CreateTestEv
FNDA:1,_ZN7testing8internal15TestFactoryImplI45OsTriangulosEquilateros_IntegrationTests_TestE10CreateTestEv
FN:472,_ZN7testing8internal15TestFactoryImplI35CortandoOCubo_IntegrationTests_TestE10CreateTestEv
FNDA:1,_ZN7testing8internal15TestFactoryImplI35CortandoOCubo_IntegrationTests_TestE10CreateTestEv
FN:472,_ZN7testing8internal15TestFactoryImplI42CirculoIntermediario_IntegrationTests_TestE10CreateTestEv
FNDA:1,_ZN7testing8internal15TestFactoryImplI42CirculoIntermediario_IntegrationTests_TestE10CreateTestEv
FN:472,_ZN7testing8internal15TestFactoryImplI61TriangularPrismTest_TriangularPrismNonNegativeDimensions_TestE10CreateTestEv
FNDA:1,_ZN7testing8internal15TestFactoryImplI61TriangularPrismTest_TriangularPrismNonNegativeDimensions_TestE10CreateTestEv
FN:472,_ZN7testing8internal15TestFactoryImplI69RectangularParallelipipedTest_RectangularParallelipipedPerimeter_TestE10CreateTestEv
FNDA:1,_ZN7testing8internal15TestFactoryImplI69RectangularParallelipipedTest_RectangularParallelipipedPerimeter_TestE10CreateTestEv
FN:472,_ZN7testing8internal15TestFactoryImplI81RectangularParallelipipedTest_RectangularParallelipipedNonNegativeDimensions_TestE10CreateTestEv
FNDA:1,_ZN7testing8internal15TestFactoryImplI81RectangularParallelipipedTest_RectangularParallelipipedNonNegativeDimensions_TestE10CreateTestEv
FN:472,_ZN7testing8internal15TestFactoryImplI32CylinderTest_CylinderVolume_TestE10CreateTestEv
FNDA:1,_ZN7testing8internal15TestFactoryImplI32CylinderTest_CylinderVolume_TestE10CreateTestEv
FN:472,_ZN7testing8internal15TestFactoryImplI40ParallelogramTest_ParallelogramArea_TestE10CreateTestEv
FNDA:1,_ZN7testing8internal15TestFactoryImplI40ParallelogramTest_ParallelogramArea_TestE10CreateTestEv
FN:472,_ZN7testing8internal15TestFactoryImplI45ParallelogramTest_ParallelogramPerimeter_TestE10CreateTestEv
FNDA:1,_ZN7testing8internal15TestFactoryImplI45ParallelogramTest_ParallelogramPerimeter_TestE10CreateTestEv
FN:472,_ZN7testing8internal15TestFactoryImplI57ParallelogramTest_ParallelogramNonNegativeDimensions_TestE10CreateTestEv
FNDA:1,_ZN7testing8internal15TestFactoryImplI57ParallelogramTest_ParallelogramNonNegativeDimensions_TestE10CreateTestEv
FN:472,_ZN7testing8internal15TestFactoryImplI46TriangularPrismTest_TriangularPrismVolume_TestE10CreateTestEv
FNDA:1,_ZN7testing8internal15TestFactoryImplI46TriangularPrismTest_TriangularPrismVolume_TestE10CreateTestEv
FN:472,_ZN7testing8internal15TestFactoryImplI58TriangularPrismTest_TriangularPrismTriangularBaseArea_TestE10CreateTestEv
FNDA:1,_ZN7testing8internal15TestFactoryImplI58TriangularPrismTest_TriangularPrismTriangularBaseArea_TestE10CreateTestEv
FN:472,_ZN7testing8internal15TestFactoryImplI59TriangularPrismTest_TriangularPrismRectangularBaseArea_TestE10CreateTestEv
FNDA:1,_ZN7testing8internal15TestFactoryImplI59TriangularPrismTest_TriangularPrismRectangularBaseArea_TestE10CreateTestEv
FN:472,_ZN7testing8internal15TestFactoryImplI47ParallelogramTest_ParallelogramOtherHeight_TestE10CreateTestEv
FNDA:1,_ZN7testing8internal15TestFactoryImplI47ParallelogramTest_ParallelogramOtherHeight_TestE10CreateTestEv
FN:472,_ZN7testing8internal15TestFactoryImplI24CubeTest_CubeVolume_TestE10CreateTestEv
FNDA:1,_ZN7testing8internal15TestFactoryImplI24CubeTest_CubeVolume_TestE10CreateTestEv
FN:472,_ZN7testing8internal15TestFactoryImplI22CubeTest_CubeArea_TestE10CreateTestEv
FNDA:1,_ZN7testing8internal15TestFactoryImplI22CubeTest_CubeArea_TestE10CreateTestEv
FN:472,_ZN7testing8internal15TestFactoryImplI27CubeTest_CubePerimeter_TestE10CreateTestEv
FNDA:1,_ZN7testing8internal15TestFactoryImplI27CubeTest_CubePerimeter_TestE10CreateTestEv
FN:472,_ZN7testing8internal15TestFactoryImplI33CubeTest_CubeNonNegativeEdge_TestE10CreateTestEv
FNDA:1,_ZN7testing8internal15TestFactoryImplI33CubeTest_CubeNonNegativeEdge_TestE10CreateTestEv
FN:472,_ZN7testing8internal15TestFactoryImplI56TriangleTest_TriangleHeightRelativeToSideExceptions_TestE10CreateTestEv
FNDA:1,_ZN7testing8internal15TestFactoryImplI56TriangleTest_TriangleHeightRelativeToSideExceptions_TestE10CreateTestEv
FN:472,_ZN7testing8internal15TestFactoryImplI46TriangleTest_TriangleHeightRelativeToSide_TestE10CreateTestEv
FNDA:1,_ZN7testing8internal15TestFactoryImplI46TriangleTest_TriangleHeightRelativeToSide_TestE10CreateTestEv
FN:472,_ZN7testing8internal15TestFactoryImplI30TriangleTest_TriangleArea_TestE10CreateTestEv
FNDA:1,_ZN7testing8internal15TestFactoryImplI30TriangleTest_TriangleArea_TestE10CreateTestEv
FN:472,_ZN7testing8internal15TestFactoryImplI35TriangleTest_TrianglePerimeter_TestE10CreateTestEv
FNDA:1,_ZN7testing8internal15TestFactoryImplI35TriangleTest_TrianglePerimeter_TestE10CreateTestEv
FN:472,_ZN7testing8internal15TestFactoryImplI35PentagonTest_PentagonPerimeter_TestE10CreateTestEv
FNDA:1,_ZN7testing8internal15TestFactoryImplI35PentagonTest_PentagonPerimeter_TestE10CreateTestEv
FN:472,_ZN7testing8internal15TestFactoryImplI30CylinderTest_CylinderArea_TestE10CreateTestEv
FNDA:1,_ZN7testing8internal15TestFactoryImplI30CylinderTest_CylinderArea_TestE10CreateTestEv
FN:472,_ZN7testing8internal15TestFactoryImplI43CylinderTest_CylinderNonNegativeRadius_TestE10CreateTestEv
FNDA:1,_ZN7testing8internal15TestFactoryImplI43CylinderTest_CylinderNonNegativeRadius_TestE10CreateTestEv
FN:472,_ZN7testing8internal15TestFactoryImplI46PentagonalPrismTest_PentagonalPrismVolume_TestE10CreateTestEv
FNDA:1,_ZN7testing8internal15TestFactoryImplI46PentagonalPrismTest_PentagonalPrismVolume_TestE10CreateTestEv
FN:472,_ZN7testing8internal15TestFactoryImplI44PentagonalPrismTest_PentagonalPrismArea_TestE10CreateTestEv
FNDA:1,_ZN7testing8internal15TestFactoryImplI44PentagonalPrismTest_PentagonalPrismArea_TestE10CreateTestEv
FN:472,_ZN7testing8internal15TestFactoryImplI55PentagonalPrismTest_PentagonalPrismNonNegativeSide_TestE10CreateTestEv
FNDA:1,_ZN7testing8internal15TestFactoryImplI55PentagonalPrismTest_PentagonalPrismNonNegativeSide_TestE10CreateTestEv
FN:472,_ZN7testing8internal15TestFactoryImplI68RectangularParallelipipedTest_RectangularParallelipipedBaseArea_TestE10CreateTestEv
FNDA:1,_ZN7testing8internal15TestFactoryImplI68RectangularParallelipipedTest_RectangularParallelipipedBaseArea_TestE10CreateTestEv
FN:472,_ZN7testing8internal15TestFactoryImplI30PentagonTest_PentagonArea_TestE10CreateTestEv
FNDA:1,_ZN7testing8internal15TestFactoryImplI30PentagonTest_PentagonArea_TestE10CreateTestEv
FN:472,_ZN7testing8internal15TestFactoryImplI41PentagonTest_PentagonNonNegativeSide_TestE10CreateTestEv
FNDA:1,_ZN7testing8internal15TestFactoryImplI41PentagonTest_PentagonNonNegativeSide_TestE10CreateTestEv
FN:472,_ZN7testing8internal15TestFactoryImplI33TrapezeTest_TrapezePerimeter_TestE10CreateTestEv
FNDA:1,_ZN7testing8internal15TestFactoryImplI33TrapezeTest_TrapezePerimeter_TestE10CreateTestEv
FN:472,_ZN7testing8internal15TestFactoryImplI28TrapezeTest_TrapezeArea_TestE10CreateTestEv
FNDA:1,_ZN7testing8internal15TestFactoryImplI28TrapezeTest_TrapezeArea_TestE10CreateTestEv
FN:472,_ZN7testing8internal15TestFactoryImplI45TrapezeTest_TrapezeNonNegativeDimensions_TestE10CreateTestEv
FNDA:1,_ZN7testing8internal15TestFactoryImplI45TrapezeTest_TrapezeNonNegativeDimensions_TestE10CreateTestEv
FN:472,_ZN7testing8internal15TestFactoryImplI30CircleTest_CircleDiameter_TestE10CreateTestEv
FNDA:1,_ZN7testing8internal15TestFactoryImplI30CircleTest_CircleDiameter_TestE10CreateTestEv
FN:472,_ZN7testing8internal15TestFactoryImplI31CircleTest_CirclePerimeter_TestE10CreateTestEv
FNDA:1,_ZN7testing8internal15TestFactoryImplI31CircleTest_CirclePerimeter_TestE10CreateTestEv
FN:472,_ZN7testing8internal15TestFactoryImplI26CircleTest_CircleArea_TestE10CreateTestEv
FNDA:1,_ZN7testing8internal15TestFactoryImplI26CircleTest_CircleArea_TestE10CreateTestEv
FN:472,_ZN7testing8internal15TestFactoryImplI39CircleTest_CircleNonNegativeRadius_TestE10CreateTestEv
FNDA:1,_ZN7testing8internal15TestFactoryImplI39CircleTest_CircleNonNegativeRadius_TestE10CreateTestEv
FN:472,_ZN7testing8internal15TestFactoryImplI66RectangularParallelipipedTest_RectangularParallelipipedVolume_TestE10CreateTestEv
FNDA:1,_ZN7testing8internal15TestFactoryImplI66RectangularParallelipipedTest_RectangularParallelipipedVolume_TestE10CreateTestEv
FN:472,_ZN7testing8internal15TestFactoryImplI71RectangularParallelipipedTest_RectangularParallelipipedLateralArea_TestE10CreateTestEv
FNDA:1,_ZN7testing8internal15TestFactoryImplI71RectangularParallelipipedTest_RectangularParallelipipedLateralArea_TestE10CreateTestEv
FN:493,_ZN7testing8internal12CodeLocationC2ERKNSt7__cxx1112basic_stringIcSt11char_traitsIcESaIcEEEi
FNDA:65,_ZN7testing8internal12CodeLocationC2ERKNSt7__cxx1112basic_stringIcSt11char_traitsIcESaIcEEEi
FN:506,_ZN7testing8internal19GetNotDefaultOrNullEPFvvES2_
FNDA:260,_ZN7testing8internal19GetNotDefaultOrNullEPFvvES2_
FN:521,_ZN7testing8internal16SuiteApiResolverINS_4TestEE19GetSetUpCaseOrSuiteEPKci
FNDA:65,_ZN7testing8internal16SuiteApiResolverINS_4TestEE19GetSetUpCaseOrSuiteEPKci
FN:542,_ZN7testing8internal16SuiteApiResolverINS_4TestEE22GetTearDownCaseOrSuiteEPKci
FNDA:65,_ZN7testing8internal16SuiteApiResolverINS_4TestEE22GetTearDownCaseOrSuiteEPKci
FN:862,_ZN7testing8internal14TrueWithStringC2Ev
FNDA:21,_ZN7testing8internal14TrueWithStringC2Ev
FN:865,_ZNK7testing8internal14TrueWithStringcvbEv
FNDA:21,_ZNK7testing8internal14TrueWithStringcvbEv
DA:298,22
DA:325,22
DA:328,0
DA:334,22
DA:337,22
DA:346,11
DA:349,11
DA:351,11
DA:352,11
DA:377,22
DA:378,22
DA:380,0
DA:383,22
DA:389,11
DA:391,11
DA:392,11
DA:393,11
DA:454,0
DA:454,65
DA:461,65
DA:472,1
DA:472,1
DA:472,1
DA:472,1
DA:472,1
DA:472,1
DA:472,1
DA:472,1
DA:472,1
DA:472,1
DA:472,1
DA:472,1
DA:472,1
DA:472,1
DA:472,1
DA:472,1
DA:472,1
DA:472,1
DA:472,1
DA:472,1
DA:472,1
DA:472,1
DA:472,1
DA:472,1
DA:472,1
DA:472,1
DA:472,1
DA:472,1
DA:472,1
DA:472,1
DA:472,1
DA:472,1
DA:472,1
DA:472,1
DA:472,1
DA:472,1
DA:472,1
DA:472,1
DA:472,1
DA:472,1
DA:472,1
DA:472,1
DA:472,1
DA:472,1
DA:472,1
DA:472,1
DA:472,1
DA:472,1
DA:472,1
DA:472,1
DA:472,1
DA:472,1
DA:472,1
DA:472,1
DA:472,1
DA:472,1
DA:472,1
DA:472,1
DA:472,1
DA:472,1
DA:472,1
DA:472,1
DA:472,1
DA:472,1
DA:472,1
DA:493,65
DA:494,65
DA:506,260
DA:508,260
DA:521,65
DA:525,65
DA:527,65
DA:529,65
DA:532,0
DA:534,65
DA:542,65
DA:546,65
DA:548,65
DA:550,65
DA:553,0
DA:555,65
DA:862,21
DA:865,21
end_of_record
SF:/usr/include/gtest/gtest-printers.h
FN:214,_ZN7testing8internal52internal_stream_operator_without_lexical_name_lookup13StreamPrinter10PrintValueIdvRSoEEvRKT_PSo
FNDA:0,_ZN7testing8internal52internal_stream_operator_without_lexical_name_lookup13StreamPrinter10PrintValueIdvRSoEEvRKT_PSo
FN:214,_ZN7testing8internal52internal_stream_operator_without_lexical_name_lookup13StreamPrinter10PrintValueIivRSoEEvRKT_PSo
FNDA:0,_ZN7testing8internal52internal_stream_operator_without_lexical_name_lookup13StreamPrinter10PrintValueIivRSoEEvRKT_PSo
FN:299,_ZN7testing8internal17PrintWithFallbackIiEEvRKT_PSo
FNDA:0,_ZN7testing8internal17PrintWithFallbackIiEEvRKT_PSo
FN:299,_ZN7testing8internal17PrintWithFallbackIdEEvRKT_PSo
FNDA:0,_ZN7testing8internal17PrintWithFallbackIdEEvRKT_PSo
FN:326,_ZN7testing8internal19FormatForComparisonIddE6FormatB5cxx11ERKd
FNDA:0,_ZN7testing8internal19FormatForComparisonIddE6FormatB5cxx11ERKd
FN:326,_ZN7testing8internal19FormatForComparisonIidE6FormatB5cxx11ERKi
FNDA:0,_ZN7testing8internal19FormatForComparisonIidE6FormatB5cxx11ERKi
FN:326,_ZN7testing8internal19FormatForComparisonIdiE6FormatB5cxx11ERKd
FNDA:0,_ZN7testing8internal19FormatForComparisonIdiE6FormatB5cxx11ERKd
FN:406,_ZN7testing8internal33FormatForComparisonFailureMessageIddEENSt7__cxx1112basic_stringIcSt11char_traitsIcESaIcEEERKT_RKT0_
FNDA:0,_ZN7testing8internal33FormatForComparisonFailureMessageIddEENSt7__cxx1112basic_stringIcSt11char_traitsIcESaIcEEERKT_RKT0_
FN:406,_ZN7testing8internal33FormatForComparisonFailureMessageIidEENSt7__cxx1112basic_stringIcSt11char_traitsIcESaIcEEERKT_RKT0_
FNDA:0,_ZN7testing8internal33FormatForComparisonFailureMessageIidEENSt7__cxx1112basic_stringIcSt11char_traitsIcESaIcEEERKT_RKT0_
FN:406,_ZN7testing8internal33FormatForComparisonFailureMessageIdiEENSt7__cxx1112basic_stringIcSt11char_traitsIcESaIcEEERKT_RKT0_
FNDA:0,_ZN7testing8internal33FormatForComparisonFailureMessageIdiEENSt7__cxx1112basic_stringIcSt11char_traitsIcESaIcEEERKT_RKT0_
FN:433,_ZN7testing8internal7PrintToIdEEvRKT_PSo
FNDA:0,_ZN7testing8internal7PrintToIdEEvRKT_PSo
FN:433,_ZN7testing8internal7PrintToIiEEvRKT_PSo
FNDA:0,_ZN7testing8internal7PrintToIiEEvRKT_PSo
FN:621,_ZN7testing8internal16UniversalPrinterIdE5PrintERKdPSo
FNDA:0,_ZN7testing8internal16UniversalPrinterIdE5PrintERKdPSo
FN:621,_ZN7testing8internal16UniversalPrinterIiE5PrintERKiPSo
FNDA:0,_ZN7testing8internal16UniversalPrinterIiE5PrintERKiPSo
FN:785,_ZN7testing8internal21UniversalTersePrinterIiE5PrintERKiPSo
FNDA:0,_ZN7testing8internal21UniversalTersePrinterIiE5PrintERKiPSo
FN:785,_ZN7testing8internal21UniversalTersePrinterIdE5PrintERKdPSo
FNDA:0,_ZN7testing8internal21UniversalTersePrinterIdE5PrintERKdPSo
FN:854,_ZN7testing8internal14UniversalPrintIdEEvRKT_PSo
FNDA:0,_ZN7testing8internal14UniversalPrintIdEEvRKT_PSo
FN:854,_ZN7testing8internal14UniversalPrintIiEEvRKT_PSo
FNDA:0,_ZN7testing8internal14UniversalPrintIiEEvRKT_PSo
FN:894,_ZN7testing13PrintToStringIiEENSt7__cxx1112basic_stringIcSt11char_traitsIcESaIcEEERKT_
FNDA:0,_ZN7testing13PrintToStringIiEENSt7__cxx1112basic_stringIcSt11char_traitsIcESaIcEEERKT_
FN:894,_ZN7testing13PrintToStringIdEENSt7__cxx1112basic_stringIcSt11char_traitsIcESaIcEEERKT_
FNDA:0,_ZN7testing13PrintToStringIdEENSt7__cxx1112basic_stringIcSt11char_traitsIcESaIcEEERKT_
DA:214,0
DA:217,0
DA:218,0
DA:214,0
DA:217,0
DA:218,0
DA:299,0
DA:305,0
DA:306,0
DA:299,0
DA:305,0
DA:306,0
DA:326,0
DA:327,0
DA:326,0
DA:327,0
DA:326,0
DA:327,0
DA:406,0
DA:408,0
DA:406,0
DA:408,0
DA:406,0
DA:408,0
DA:433,0
DA:434,0
DA:435,0
DA:433,0
DA:434,0
DA:435,0
DA:621,0
DA:630,0
DA:631,0
DA:621,0
DA:630,0
DA:631,0
DA:785,0
DA:786,0
DA:787,0
DA:785,0
DA:786,0
DA:787,0
DA:854,0
DA:858,0
DA:859,0
DA:854,0
DA:858,0
DA:859,0
DA:894,0
DA:895,0
DA:896,0
DA:897,0
DA:898,0
DA:894,0
DA:895,0
DA:896,0
DA:897,0
DA:898,0
end_of_record
SF:/home/luizcouto/School/EasyMath/tests/Circle.cpp
FN:4,_ZN39CircleTest_CircleNonNegativeRadius_TestC2Ev
FNDA:1,_ZN39CircleTest_CircleNonNegativeRadius_TestC2Ev
FN:4,_ZN39CircleTest_CircleNonNegativeRadius_TestD0Ev
FNDA:1,_ZN39CircleTest_CircleNonNegativeRadius_TestD0Ev
FN:4,_ZN39CircleTest_CircleNonNegativeRadius_TestD2Ev
FNDA:1,_ZN39CircleTest_CircleNonNegativeRadius_TestD2Ev
FN:4,_ZN39CircleTest_CircleNonNegativeRadius_Test8TestBodyEv
FNDA:1,_ZN39CircleTest_CircleNonNegativeRadius_Test8TestBodyEv
FN:16,_ZN26CircleTest_CircleArea_TestC2Ev
FNDA:1,_ZN26CircleTest_CircleArea_TestC2Ev
FN:16,_ZN26CircleTest_CircleArea_TestD0Ev
FNDA:1,_ZN26CircleTest_CircleArea_TestD0Ev
FN:16,_ZN26CircleTest_CircleArea_TestD2Ev
FNDA:1,_ZN26CircleTest_CircleArea_TestD2Ev
FN:16,_ZN26CircleTest_CircleArea_Test8TestBodyEv
FNDA:1,_ZN26CircleTest_CircleArea_Test8TestBodyEv
FN:21,_ZN31CircleTest_CirclePerimeter_TestC2Ev
FNDA:1,_ZN31CircleTest_CirclePerimeter_TestC2Ev
FN:21,_ZN31CircleTest_CirclePerimeter_TestD0Ev
FNDA:1,_ZN31CircleTest_CirclePerimeter_TestD0Ev
FN:21,_ZN31CircleTest_CirclePerimeter_TestD2Ev
FNDA:1,_ZN31CircleTest_CirclePerimeter_TestD2Ev
FN:21,_ZN31CircleTest_CirclePerimeter_Test8TestBodyEv
FNDA:1,_ZN31CircleTest_CirclePerimeter_Test8TestBodyEv
FN:26,_ZN30CircleTest_CircleDiameter_TestC2Ev
FNDA:1,_ZN30CircleTest_CircleDiameter_TestC2Ev
FN:26,_ZN30CircleTest_CircleDiameter_TestD0Ev
FNDA:1,_ZN30CircleTest_CircleDiameter_TestD0Ev
FN:26,_ZN30CircleTest_CircleDiameter_TestD2Ev
FNDA:1,_ZN30CircleTest_CircleDiameter_TestD2Ev
FN:26,_ZN30CircleTest_CircleDiameter_Test8TestBodyEv
FNDA:1,_ZN30CircleTest_CircleDiameter_Test8TestBodyEv
DA:4,1
DA:4,1
DA:4,1
DA:4,1
DA:5,3
DA:13,1
DA:14,1
DA:16,1
DA:16,1
DA:16,1
DA:16,1
DA:17,1
DA:18,1
DA:21,1
DA:21,1
DA:21,1
DA:21,1
DA:22,1
DA:23,1
DA:26,1
DA:26,1
DA:26,1
DA:26,1
DA:27,1
DA:28,1
end_of_record
SF:/usr/include/c++/11/ext/alloc_traits.h
FN:97,_ZN9__gnu_cxx14__alloc_traitsISaIcEcE17_S_select_on_copyERKS1_
FNDA:0,_ZN9__gnu_cxx14__alloc_traitsISaIcEcE17_S_select_on_copyERKS1_
DA:97,0
DA:98,0
end_of_record
SF:/home/luizcouto/School/EasyMath/lib/Cube.hpp
FN:14,_ZN4CubeIdEC2Ed
FNDA:4,_ZN4CubeIdEC2Ed
FN:22,_ZN4CubeIdE9perimeterEv
FNDA:1,_ZN4CubeIdE9perimeterEv
FN:26,_ZN4CubeIdE4areaEv
FNDA:1,_ZN4CubeIdE4areaEv
FN:30,_ZN4CubeIdE6volumeEv
FNDA:1,_ZN4CubeIdE6volumeEv
DA:14,4
DA:15,4
DA:16,1
DA:19,3
DA:20,3
DA:22,1
DA:23,1
DA:26,1
DA:27,1
DA:30,1
DA:31,1
end_of_record
SF:/home/luizcouto/School/EasyMath/lib/Rectangle.hpp
FN:13,_ZN9RectangleIdEC2Edd
FNDA:6,_ZN9RectangleIdEC2Edd
FN:26,_ZN9RectangleIdE4areaEv
FNDA:2,_ZN9RectangleIdE4areaEv
FN:31,_ZN9RectangleIdE9perimeterEv
FNDA:1,_ZN9RectangleIdE9perimeterEv
FN:36,_ZN9RectangleIdE8diagonalEv
FNDA:1,_ZN9RectangleIdE8diagonalEv
DA:13,6
DA:15,6
DA:16,1
DA:18,5
DA:19,1
DA:22,4
DA:23,4
DA:24,4
DA:26,2
DA:28,2
DA:31,1
DA:33,1
DA:36,1
DA:38,1
end_of_record
SF:/home/luizcouto/School/EasyMath/tests/HexagonalPrism.cpp
FN:4,_ZN62EasyMathHexagonalPrismsTest_HexagonalPrismsNoNegativeSide_TestC2Ev
FNDA:1,_ZN62EasyMathHexagonalPrismsTest_HexagonalPrismsNoNegativeSide_TestC2Ev
FN:4,_ZN62EasyMathHexagonalPrismsTest_HexagonalPrismsNoNegativeSide_TestD0Ev
FNDA:1,_ZN62EasyMathHexagonalPrismsTest_HexagonalPrismsNoNegativeSide_TestD0Ev
FN:4,_ZN62EasyMathHexagonalPrismsTest_HexagonalPrismsNoNegativeSide_TestD2Ev
FNDA:1,_ZN62EasyMathHexagonalPrismsTest_HexagonalPrismsNoNegativeSide_TestD2Ev
FN:4,_ZN62EasyMathHexagonalPrismsTest_HexagonalPrismsNoNegativeSide_Test8TestBodyEv
FNDA:1,_ZN62EasyMathHexagonalPrismsTest_HexagonalPrismsNoNegativeSide_Test8TestBodyEv
FN:30,_ZN52EasyMathHexagonalPrismsTest_HexagonalPrismsArea_TestC2Ev
FNDA:1,_ZN52EasyMathHexagonalPrismsTest_HexagonalPrismsArea_TestC2Ev
FN:30,_ZN52EasyMathHexagonalPrismsTest_HexagonalPrismsArea_TestD0Ev
FNDA:1,_ZN52EasyMathHexagonalPrismsTest_HexagonalPrismsArea_TestD0Ev
FN:30,_ZN52EasyMathHexagonalPrismsTest_HexagonalPrismsArea_TestD2Ev
FNDA:1,_ZN52EasyMathHexagonalPrismsTest_HexagonalPrismsArea_TestD2Ev
FN:30,_ZN52EasyMathHexagonalPrismsTest_HexagonalPrismsArea_Test8TestBodyEv
FNDA:1,_ZN52EasyMathHexagonalPrismsTest_HexagonalPrismsArea_Test8TestBodyEv
FN:35,_ZN57EasyMathHexagonalPrismsTest_HexagonalPrismsPerimeter_TestC2Ev
FNDA:1,_ZN57EasyMathHexagonalPrismsTest_HexagonalPrismsPerimeter_TestC2Ev
FN:35,_ZN57EasyMathHexagonalPrismsTest_HexagonalPrismsPerimeter_TestD0Ev
FNDA:1,_ZN57EasyMathHexagonalPrismsTest_HexagonalPrismsPerimeter_TestD0Ev
FN:35,_ZN57EasyMathHexagonalPrismsTest_HexagonalPrismsPerimeter_TestD2Ev
FNDA:1,_ZN57EasyMathHexagonalPrismsTest_HexagonalPrismsPerimeter_TestD2Ev
FN:35,_ZN57EasyMathHexagonalPrismsTest_HexagonalPrismsPerimeter_Test8TestBodyEv
FNDA:1,_ZN57EasyMathHexagonalPrismsTest_HexagonalPrismsPerimeter_Test8TestBodyEv
DA:4,1
DA:4,1
DA:4,1
DA:4,1
DA:5,3
DA:15,1
DA:17,3
DA:27,1
DA:28,1
DA:30,1
DA:30,1
DA:30,1
DA:30,1
DA:31,1
DA:32,1
DA:35,1
DA:35,1
DA:35,1
DA:35,1
DA:36,1
DA:37,1
end_of_record
